
MasterBoard.elf:     file format elf32-littlearm

Sections:
Idx Name          Size      VMA       LMA       File off  Algn
  0 .text         000052b0  00000000  00000000  00010000  2**2
                  CONTENTS, ALLOC, LOAD, READONLY, CODE
  1 .relocate     00000084  20000000  000052b0  00020000  2**2
                  CONTENTS, ALLOC, LOAD, DATA
  2 .bss          00000198  20000084  00005334  00020084  2**2
                  ALLOC
  3 .stack        00002004  2000021c  000054cc  00020084  2**0
                  ALLOC
  4 .ARM.attributes 00000028  00000000  00000000  00020084  2**0
                  CONTENTS, READONLY
  5 .comment      00000059  00000000  00000000  000200ac  2**0
                  CONTENTS, READONLY
  6 .debug_info   00037717  00000000  00000000  00020105  2**0
                  CONTENTS, READONLY, DEBUGGING
  7 .debug_abbrev 00005062  00000000  00000000  0005781c  2**0
                  CONTENTS, READONLY, DEBUGGING
  8 .debug_loc    0000824d  00000000  00000000  0005c87e  2**0
                  CONTENTS, READONLY, DEBUGGING
  9 .debug_aranges 00000890  00000000  00000000  00064acb  2**0
                  CONTENTS, READONLY, DEBUGGING
 10 .debug_ranges 00000a78  00000000  00000000  0006535b  2**0
                  CONTENTS, READONLY, DEBUGGING
 11 .debug_macro  0001c3e1  00000000  00000000  00065dd3  2**0
                  CONTENTS, READONLY, DEBUGGING
 12 .debug_line   000140b2  00000000  00000000  000821b4  2**0
                  CONTENTS, READONLY, DEBUGGING
 13 .debug_str    00087260  00000000  00000000  00096266  2**0
                  CONTENTS, READONLY, DEBUGGING
 14 .debug_frame  00001da0  00000000  00000000  0011d4c8  2**2
                  CONTENTS, READONLY, DEBUGGING

Disassembly of section .text:

00000000 <_sfixed>:
       0:	20002220 	.word	0x20002220
       4:	00002081 	.word	0x00002081
       8:	0000207d 	.word	0x0000207d
       c:	0000207d 	.word	0x0000207d
	...
      2c:	0000207d 	.word	0x0000207d
	...
      38:	0000207d 	.word	0x0000207d
      3c:	0000207d 	.word	0x0000207d
      40:	0000207d 	.word	0x0000207d
      44:	0000207d 	.word	0x0000207d
      48:	0000207d 	.word	0x0000207d
      4c:	0000207d 	.word	0x0000207d
      50:	00001451 	.word	0x00001451
      54:	0000207d 	.word	0x0000207d
      58:	0000207d 	.word	0x0000207d
      5c:	0000207d 	.word	0x0000207d
      60:	000009b5 	.word	0x000009b5
      64:	00001991 	.word	0x00001991
      68:	000019a1 	.word	0x000019a1
      6c:	000019b1 	.word	0x000019b1
      70:	000019c1 	.word	0x000019c1
      74:	000019d1 	.word	0x000019d1
      78:	000019e1 	.word	0x000019e1
      7c:	00000af1 	.word	0x00000af1
      80:	00000b01 	.word	0x00000b01
      84:	00000b11 	.word	0x00000b11
      88:	00000ec1 	.word	0x00000ec1
      8c:	00000ed1 	.word	0x00000ed1
      90:	00000ee1 	.word	0x00000ee1
	...
      9c:	0000207d 	.word	0x0000207d
      a0:	0000207d 	.word	0x0000207d
      a4:	00000000 	.word	0x00000000
      a8:	0000207d 	.word	0x0000207d
	...

000000b4 <__do_global_dtors_aux>:
      b4:	b510      	push	{r4, lr}
      b6:	4c06      	ldr	r4, [pc, #24]	; (d0 <__do_global_dtors_aux+0x1c>)
      b8:	7823      	ldrb	r3, [r4, #0]
      ba:	2b00      	cmp	r3, #0
      bc:	d107      	bne.n	ce <__do_global_dtors_aux+0x1a>
      be:	4b05      	ldr	r3, [pc, #20]	; (d4 <__do_global_dtors_aux+0x20>)
      c0:	2b00      	cmp	r3, #0
      c2:	d002      	beq.n	ca <__do_global_dtors_aux+0x16>
      c4:	4804      	ldr	r0, [pc, #16]	; (d8 <__do_global_dtors_aux+0x24>)
      c6:	e000      	b.n	ca <__do_global_dtors_aux+0x16>
      c8:	bf00      	nop
      ca:	2301      	movs	r3, #1
      cc:	7023      	strb	r3, [r4, #0]
      ce:	bd10      	pop	{r4, pc}
      d0:	20000084 	.word	0x20000084
      d4:	00000000 	.word	0x00000000
      d8:	000052b0 	.word	0x000052b0

000000dc <frame_dummy>:
      dc:	4b08      	ldr	r3, [pc, #32]	; (100 <frame_dummy+0x24>)
      de:	b510      	push	{r4, lr}
      e0:	2b00      	cmp	r3, #0
      e2:	d003      	beq.n	ec <frame_dummy+0x10>
      e4:	4907      	ldr	r1, [pc, #28]	; (104 <frame_dummy+0x28>)
      e6:	4808      	ldr	r0, [pc, #32]	; (108 <frame_dummy+0x2c>)
      e8:	e000      	b.n	ec <frame_dummy+0x10>
      ea:	bf00      	nop
      ec:	4807      	ldr	r0, [pc, #28]	; (10c <frame_dummy+0x30>)
      ee:	6803      	ldr	r3, [r0, #0]
      f0:	2b00      	cmp	r3, #0
      f2:	d100      	bne.n	f6 <frame_dummy+0x1a>
      f4:	bd10      	pop	{r4, pc}
      f6:	4b06      	ldr	r3, [pc, #24]	; (110 <frame_dummy+0x34>)
      f8:	2b00      	cmp	r3, #0
      fa:	d0fb      	beq.n	f4 <frame_dummy+0x18>
      fc:	4798      	blx	r3
      fe:	e7f9      	b.n	f4 <frame_dummy+0x18>
     100:	00000000 	.word	0x00000000
     104:	20000088 	.word	0x20000088
     108:	000052b0 	.word	0x000052b0
     10c:	000052b0 	.word	0x000052b0
     110:	00000000 	.word	0x00000000

00000114 <_i2c_master_wait_for_sync>:
     114:	6801      	ldr	r1, [r0, #0]
     116:	2207      	movs	r2, #7
     118:	69cb      	ldr	r3, [r1, #28]
     11a:	421a      	tst	r2, r3
     11c:	d1fc      	bne.n	118 <_i2c_master_wait_for_sync+0x4>
     11e:	4770      	bx	lr

00000120 <i2c_master_init>:
     120:	b5f0      	push	{r4, r5, r6, r7, lr}
     122:	465f      	mov	r7, fp
     124:	4656      	mov	r6, sl
     126:	464d      	mov	r5, r9
     128:	4644      	mov	r4, r8
     12a:	b4f0      	push	{r4, r5, r6, r7}
     12c:	b08b      	sub	sp, #44	; 0x2c
     12e:	0007      	movs	r7, r0
     130:	000d      	movs	r5, r1
     132:	0016      	movs	r6, r2
     134:	6039      	str	r1, [r7, #0]
     136:	0008      	movs	r0, r1
     138:	4b99      	ldr	r3, [pc, #612]	; (3a0 <i2c_master_init+0x280>)
     13a:	4798      	blx	r3
     13c:	4999      	ldr	r1, [pc, #612]	; (3a4 <i2c_master_init+0x284>)
     13e:	6a0a      	ldr	r2, [r1, #32]
     140:	1c84      	adds	r4, r0, #2
     142:	2301      	movs	r3, #1
     144:	40a3      	lsls	r3, r4
     146:	4313      	orrs	r3, r2
     148:	620b      	str	r3, [r1, #32]
     14a:	a909      	add	r1, sp, #36	; 0x24
     14c:	7b33      	ldrb	r3, [r6, #12]
     14e:	700b      	strb	r3, [r1, #0]
     150:	3014      	adds	r0, #20
     152:	b2c4      	uxtb	r4, r0
     154:	0020      	movs	r0, r4
     156:	4b94      	ldr	r3, [pc, #592]	; (3a8 <i2c_master_init+0x288>)
     158:	4798      	blx	r3
     15a:	0020      	movs	r0, r4
     15c:	4b93      	ldr	r3, [pc, #588]	; (3ac <i2c_master_init+0x28c>)
     15e:	4798      	blx	r3
     160:	7b30      	ldrb	r0, [r6, #12]
     162:	2100      	movs	r1, #0
     164:	4b92      	ldr	r3, [pc, #584]	; (3b0 <i2c_master_init+0x290>)
     166:	4798      	blx	r3
     168:	682b      	ldr	r3, [r5, #0]
     16a:	201c      	movs	r0, #28
     16c:	079b      	lsls	r3, r3, #30
     16e:	d500      	bpl.n	172 <i2c_master_init+0x52>
     170:	e10f      	b.n	392 <i2c_master_init+0x272>
     172:	682b      	ldr	r3, [r5, #0]
     174:	3817      	subs	r0, #23
     176:	07db      	lsls	r3, r3, #31
     178:	d500      	bpl.n	17c <i2c_master_init+0x5c>
     17a:	e10a      	b.n	392 <i2c_master_init+0x272>
     17c:	6838      	ldr	r0, [r7, #0]
     17e:	4b88      	ldr	r3, [pc, #544]	; (3a0 <i2c_master_init+0x280>)
     180:	4699      	mov	r9, r3
     182:	4798      	blx	r3
     184:	0004      	movs	r4, r0
     186:	498b      	ldr	r1, [pc, #556]	; (3b4 <i2c_master_init+0x294>)
     188:	4b8b      	ldr	r3, [pc, #556]	; (3b8 <i2c_master_init+0x298>)
     18a:	4798      	blx	r3
     18c:	00a4      	lsls	r4, r4, #2
     18e:	4b8b      	ldr	r3, [pc, #556]	; (3bc <i2c_master_init+0x29c>)
     190:	50e7      	str	r7, [r4, r3]
     192:	2300      	movs	r3, #0
     194:	763b      	strb	r3, [r7, #24]
     196:	767b      	strb	r3, [r7, #25]
     198:	2400      	movs	r4, #0
     19a:	837b      	strh	r3, [r7, #26]
     19c:	83bb      	strh	r3, [r7, #28]
     19e:	2225      	movs	r2, #37	; 0x25
     1a0:	54bc      	strb	r4, [r7, r2]
     1a2:	623b      	str	r3, [r7, #32]
     1a4:	3314      	adds	r3, #20
     1a6:	602b      	str	r3, [r5, #0]
     1a8:	683b      	ldr	r3, [r7, #0]
     1aa:	4698      	mov	r8, r3
     1ac:	0018      	movs	r0, r3
     1ae:	47c8      	blx	r9
     1b0:	4681      	mov	r9, r0
     1b2:	2380      	movs	r3, #128	; 0x80
     1b4:	aa08      	add	r2, sp, #32
     1b6:	7013      	strb	r3, [r2, #0]
     1b8:	7054      	strb	r4, [r2, #1]
     1ba:	2301      	movs	r3, #1
     1bc:	7093      	strb	r3, [r2, #2]
     1be:	70d4      	strb	r4, [r2, #3]
     1c0:	69f0      	ldr	r0, [r6, #28]
     1c2:	6a35      	ldr	r5, [r6, #32]
     1c4:	2800      	cmp	r0, #0
     1c6:	d103      	bne.n	1d0 <i2c_master_init+0xb0>
     1c8:	2100      	movs	r1, #0
     1ca:	4640      	mov	r0, r8
     1cc:	4b7c      	ldr	r3, [pc, #496]	; (3c0 <i2c_master_init+0x2a0>)
     1ce:	4798      	blx	r3
     1d0:	ab08      	add	r3, sp, #32
     1d2:	7018      	strb	r0, [r3, #0]
     1d4:	2302      	movs	r3, #2
     1d6:	aa08      	add	r2, sp, #32
     1d8:	7053      	strb	r3, [r2, #1]
     1da:	0c00      	lsrs	r0, r0, #16
     1dc:	b2c0      	uxtb	r0, r0
     1de:	0011      	movs	r1, r2
     1e0:	4b78      	ldr	r3, [pc, #480]	; (3c4 <i2c_master_init+0x2a4>)
     1e2:	4798      	blx	r3
     1e4:	2d00      	cmp	r5, #0
     1e6:	d104      	bne.n	1f2 <i2c_master_init+0xd2>
     1e8:	2101      	movs	r1, #1
     1ea:	4640      	mov	r0, r8
     1ec:	4b74      	ldr	r3, [pc, #464]	; (3c0 <i2c_master_init+0x2a0>)
     1ee:	4798      	blx	r3
     1f0:	0005      	movs	r5, r0
     1f2:	ab08      	add	r3, sp, #32
     1f4:	701d      	strb	r5, [r3, #0]
     1f6:	2302      	movs	r3, #2
     1f8:	aa08      	add	r2, sp, #32
     1fa:	7053      	strb	r3, [r2, #1]
     1fc:	0c28      	lsrs	r0, r5, #16
     1fe:	b2c0      	uxtb	r0, r0
     200:	0011      	movs	r1, r2
     202:	4b70      	ldr	r3, [pc, #448]	; (3c4 <i2c_master_init+0x2a4>)
     204:	4798      	blx	r3
     206:	8ab3      	ldrh	r3, [r6, #20]
     208:	80fb      	strh	r3, [r7, #6]
     20a:	8af3      	ldrh	r3, [r6, #22]
     20c:	813b      	strh	r3, [r7, #8]
     20e:	7e32      	ldrb	r2, [r6, #24]
     210:	2380      	movs	r3, #128	; 0x80
     212:	2a00      	cmp	r2, #0
     214:	d104      	bne.n	220 <i2c_master_init+0x100>
     216:	4b6c      	ldr	r3, [pc, #432]	; (3c8 <i2c_master_init+0x2a8>)
     218:	789b      	ldrb	r3, [r3, #2]
     21a:	079b      	lsls	r3, r3, #30
     21c:	0fdb      	lsrs	r3, r3, #31
     21e:	01db      	lsls	r3, r3, #7
     220:	68b1      	ldr	r1, [r6, #8]
     222:	6932      	ldr	r2, [r6, #16]
     224:	430a      	orrs	r2, r1
     226:	4313      	orrs	r3, r2
     228:	2224      	movs	r2, #36	; 0x24
     22a:	5cb2      	ldrb	r2, [r6, r2]
     22c:	2a00      	cmp	r2, #0
     22e:	d002      	beq.n	236 <i2c_master_init+0x116>
     230:	2280      	movs	r2, #128	; 0x80
     232:	05d2      	lsls	r2, r2, #23
     234:	4313      	orrs	r3, r2
     236:	6ab2      	ldr	r2, [r6, #40]	; 0x28
     238:	4313      	orrs	r3, r2
     23a:	222c      	movs	r2, #44	; 0x2c
     23c:	5cb2      	ldrb	r2, [r6, r2]
     23e:	2a00      	cmp	r2, #0
     240:	d103      	bne.n	24a <i2c_master_init+0x12a>
     242:	2280      	movs	r2, #128	; 0x80
     244:	0492      	lsls	r2, r2, #18
     246:	4291      	cmp	r1, r2
     248:	d102      	bne.n	250 <i2c_master_init+0x130>
     24a:	2280      	movs	r2, #128	; 0x80
     24c:	0512      	lsls	r2, r2, #20
     24e:	4313      	orrs	r3, r2
     250:	222d      	movs	r2, #45	; 0x2d
     252:	5cb2      	ldrb	r2, [r6, r2]
     254:	2a00      	cmp	r2, #0
     256:	d002      	beq.n	25e <i2c_master_init+0x13e>
     258:	2280      	movs	r2, #128	; 0x80
     25a:	0412      	lsls	r2, r2, #16
     25c:	4313      	orrs	r3, r2
     25e:	222e      	movs	r2, #46	; 0x2e
     260:	5cb2      	ldrb	r2, [r6, r2]
     262:	2a00      	cmp	r2, #0
     264:	d002      	beq.n	26c <i2c_master_init+0x14c>
     266:	2280      	movs	r2, #128	; 0x80
     268:	03d2      	lsls	r2, r2, #15
     26a:	4313      	orrs	r3, r2
     26c:	4642      	mov	r2, r8
     26e:	6812      	ldr	r2, [r2, #0]
     270:	4313      	orrs	r3, r2
     272:	4642      	mov	r2, r8
     274:	6013      	str	r3, [r2, #0]
     276:	2380      	movs	r3, #128	; 0x80
     278:	005b      	lsls	r3, r3, #1
     27a:	6053      	str	r3, [r2, #4]
     27c:	4648      	mov	r0, r9
     27e:	3014      	adds	r0, #20
     280:	b2c0      	uxtb	r0, r0
     282:	4b52      	ldr	r3, [pc, #328]	; (3cc <i2c_master_init+0x2ac>)
     284:	4798      	blx	r3
     286:	0005      	movs	r5, r0
     288:	9007      	str	r0, [sp, #28]
     28a:	27fa      	movs	r7, #250	; 0xfa
     28c:	00bf      	lsls	r7, r7, #2
     28e:	6833      	ldr	r3, [r6, #0]
     290:	435f      	muls	r7, r3
     292:	6873      	ldr	r3, [r6, #4]
     294:	469a      	mov	sl, r3
     296:	4c4e      	ldr	r4, [pc, #312]	; (3d0 <i2c_master_init+0x2b0>)
     298:	47a0      	blx	r4
     29a:	9002      	str	r0, [sp, #8]
     29c:	9103      	str	r1, [sp, #12]
     29e:	0078      	lsls	r0, r7, #1
     2a0:	47a0      	blx	r4
     2a2:	9000      	str	r0, [sp, #0]
     2a4:	9101      	str	r1, [sp, #4]
     2a6:	8e30      	ldrh	r0, [r6, #48]	; 0x30
     2a8:	4368      	muls	r0, r5
     2aa:	47a0      	blx	r4
     2ac:	4b49      	ldr	r3, [pc, #292]	; (3d4 <i2c_master_init+0x2b4>)
     2ae:	469b      	mov	fp, r3
     2b0:	4a49      	ldr	r2, [pc, #292]	; (3d8 <i2c_master_init+0x2b8>)
     2b2:	4b4a      	ldr	r3, [pc, #296]	; (3dc <i2c_master_init+0x2bc>)
     2b4:	47d8      	blx	fp
     2b6:	4d4a      	ldr	r5, [pc, #296]	; (3e0 <i2c_master_init+0x2c0>)
     2b8:	2200      	movs	r2, #0
     2ba:	4b4a      	ldr	r3, [pc, #296]	; (3e4 <i2c_master_init+0x2c4>)
     2bc:	47a8      	blx	r5
     2be:	9004      	str	r0, [sp, #16]
     2c0:	9105      	str	r1, [sp, #20]
     2c2:	0038      	movs	r0, r7
     2c4:	47a0      	blx	r4
     2c6:	0002      	movs	r2, r0
     2c8:	000b      	movs	r3, r1
     2ca:	9804      	ldr	r0, [sp, #16]
     2cc:	9905      	ldr	r1, [sp, #20]
     2ce:	47d8      	blx	fp
     2d0:	0002      	movs	r2, r0
     2d2:	000b      	movs	r3, r1
     2d4:	4c44      	ldr	r4, [pc, #272]	; (3e8 <i2c_master_init+0x2c8>)
     2d6:	9802      	ldr	r0, [sp, #8]
     2d8:	9903      	ldr	r1, [sp, #12]
     2da:	47a0      	blx	r4
     2dc:	9a00      	ldr	r2, [sp, #0]
     2de:	9b01      	ldr	r3, [sp, #4]
     2e0:	47a8      	blx	r5
     2e2:	2200      	movs	r2, #0
     2e4:	4b41      	ldr	r3, [pc, #260]	; (3ec <i2c_master_init+0x2cc>)
     2e6:	47a0      	blx	r4
     2e8:	9a00      	ldr	r2, [sp, #0]
     2ea:	9b01      	ldr	r3, [sp, #4]
     2ec:	4c40      	ldr	r4, [pc, #256]	; (3f0 <i2c_master_init+0x2d0>)
     2ee:	47a0      	blx	r4
     2f0:	4b40      	ldr	r3, [pc, #256]	; (3f4 <i2c_master_init+0x2d4>)
     2f2:	4798      	blx	r3
     2f4:	0004      	movs	r4, r0
     2f6:	68b2      	ldr	r2, [r6, #8]
     2f8:	2380      	movs	r3, #128	; 0x80
     2fa:	049b      	lsls	r3, r3, #18
     2fc:	429a      	cmp	r2, r3
     2fe:	d142      	bne.n	386 <i2c_master_init+0x266>
     300:	21fa      	movs	r1, #250	; 0xfa
     302:	0089      	lsls	r1, r1, #2
     304:	4657      	mov	r7, sl
     306:	434f      	muls	r7, r1
     308:	9802      	ldr	r0, [sp, #8]
     30a:	9903      	ldr	r1, [sp, #12]
     30c:	0002      	movs	r2, r0
     30e:	000b      	movs	r3, r1
     310:	47a8      	blx	r5
     312:	9000      	str	r0, [sp, #0]
     314:	9101      	str	r1, [sp, #4]
     316:	0038      	movs	r0, r7
     318:	4b2d      	ldr	r3, [pc, #180]	; (3d0 <i2c_master_init+0x2b0>)
     31a:	4798      	blx	r3
     31c:	2200      	movs	r2, #0
     31e:	4b36      	ldr	r3, [pc, #216]	; (3f8 <i2c_master_init+0x2d8>)
     320:	47d8      	blx	fp
     322:	0002      	movs	r2, r0
     324:	000b      	movs	r3, r1
     326:	9800      	ldr	r0, [sp, #0]
     328:	9901      	ldr	r1, [sp, #4]
     32a:	4e31      	ldr	r6, [pc, #196]	; (3f0 <i2c_master_init+0x2d0>)
     32c:	47b0      	blx	r6
     32e:	2200      	movs	r2, #0
     330:	4b2e      	ldr	r3, [pc, #184]	; (3ec <i2c_master_init+0x2cc>)
     332:	4e2d      	ldr	r6, [pc, #180]	; (3e8 <i2c_master_init+0x2c8>)
     334:	47b0      	blx	r6
     336:	4b2f      	ldr	r3, [pc, #188]	; (3f4 <i2c_master_init+0x2d4>)
     338:	4798      	blx	r3
     33a:	1e06      	subs	r6, r0, #0
     33c:	d006      	beq.n	34c <i2c_master_init+0x22c>
     33e:	0039      	movs	r1, r7
     340:	9807      	ldr	r0, [sp, #28]
     342:	4b2e      	ldr	r3, [pc, #184]	; (3fc <i2c_master_init+0x2dc>)
     344:	4798      	blx	r3
     346:	3802      	subs	r0, #2
     348:	1b83      	subs	r3, r0, r6
     34a:	e007      	b.n	35c <i2c_master_init+0x23c>
     34c:	0079      	lsls	r1, r7, #1
     34e:	1e48      	subs	r0, r1, #1
     350:	9b07      	ldr	r3, [sp, #28]
     352:	469c      	mov	ip, r3
     354:	4460      	add	r0, ip
     356:	4b29      	ldr	r3, [pc, #164]	; (3fc <i2c_master_init+0x2dc>)
     358:	4798      	blx	r3
     35a:	1e43      	subs	r3, r0, #1
     35c:	2cff      	cmp	r4, #255	; 0xff
     35e:	d803      	bhi.n	368 <i2c_master_init+0x248>
     360:	2bff      	cmp	r3, #255	; 0xff
     362:	d903      	bls.n	36c <i2c_master_init+0x24c>
     364:	2040      	movs	r0, #64	; 0x40
     366:	e014      	b.n	392 <i2c_master_init+0x272>
     368:	2040      	movs	r0, #64	; 0x40
     36a:	e012      	b.n	392 <i2c_master_init+0x272>
     36c:	22ff      	movs	r2, #255	; 0xff
     36e:	4014      	ands	r4, r2
     370:	0636      	lsls	r6, r6, #24
     372:	4334      	orrs	r4, r6
     374:	041b      	lsls	r3, r3, #16
     376:	22ff      	movs	r2, #255	; 0xff
     378:	0412      	lsls	r2, r2, #16
     37a:	4013      	ands	r3, r2
     37c:	431c      	orrs	r4, r3
     37e:	4643      	mov	r3, r8
     380:	60dc      	str	r4, [r3, #12]
     382:	2000      	movs	r0, #0
     384:	e005      	b.n	392 <i2c_master_init+0x272>
     386:	2040      	movs	r0, #64	; 0x40
     388:	2cff      	cmp	r4, #255	; 0xff
     38a:	d802      	bhi.n	392 <i2c_master_init+0x272>
     38c:	2600      	movs	r6, #0
     38e:	2300      	movs	r3, #0
     390:	e7ec      	b.n	36c <i2c_master_init+0x24c>
     392:	b00b      	add	sp, #44	; 0x2c
     394:	bc3c      	pop	{r2, r3, r4, r5}
     396:	4690      	mov	r8, r2
     398:	4699      	mov	r9, r3
     39a:	46a2      	mov	sl, r4
     39c:	46ab      	mov	fp, r5
     39e:	bdf0      	pop	{r4, r5, r6, r7, pc}
     3a0:	000018e9 	.word	0x000018e9
     3a4:	40000400 	.word	0x40000400
     3a8:	00001f25 	.word	0x00001f25
     3ac:	00001e99 	.word	0x00001e99
     3b0:	00001715 	.word	0x00001715
     3b4:	0000065d 	.word	0x0000065d
     3b8:	00001929 	.word	0x00001929
     3bc:	200001cc 	.word	0x200001cc
     3c0:	00001761 	.word	0x00001761
     3c4:	0000201d 	.word	0x0000201d
     3c8:	41002000 	.word	0x41002000
     3cc:	00001f41 	.word	0x00001f41
     3d0:	00003e31 	.word	0x00003e31
     3d4:	00003229 	.word	0x00003229
     3d8:	e826d695 	.word	0xe826d695
     3dc:	3e112e0b 	.word	0x3e112e0b
     3e0:	000025a5 	.word	0x000025a5
     3e4:	40240000 	.word	0x40240000
     3e8:	0000371d 	.word	0x0000371d
     3ec:	3ff00000 	.word	0x3ff00000
     3f0:	00002bfd 	.word	0x00002bfd
     3f4:	00003dc5 	.word	0x00003dc5
     3f8:	40080000 	.word	0x40080000
     3fc:	00002435 	.word	0x00002435

00000400 <_i2c_master_address_response>:
     400:	6803      	ldr	r3, [r0, #0]
     402:	7e1a      	ldrb	r2, [r3, #24]
     404:	0792      	lsls	r2, r2, #30
     406:	d507      	bpl.n	418 <_i2c_master_address_response+0x18>
     408:	2202      	movs	r2, #2
     40a:	761a      	strb	r2, [r3, #24]
     40c:	8b5b      	ldrh	r3, [r3, #26]
     40e:	079b      	lsls	r3, r3, #30
     410:	2041      	movs	r0, #65	; 0x41
     412:	17db      	asrs	r3, r3, #31
     414:	4018      	ands	r0, r3
     416:	e00a      	b.n	42e <_i2c_master_address_response+0x2e>
     418:	8b5a      	ldrh	r2, [r3, #26]
     41a:	0752      	lsls	r2, r2, #29
     41c:	d506      	bpl.n	42c <_i2c_master_address_response+0x2c>
     41e:	685a      	ldr	r2, [r3, #4]
     420:	21c0      	movs	r1, #192	; 0xc0
     422:	0289      	lsls	r1, r1, #10
     424:	430a      	orrs	r2, r1
     426:	605a      	str	r2, [r3, #4]
     428:	2018      	movs	r0, #24
     42a:	e000      	b.n	42e <_i2c_master_address_response+0x2e>
     42c:	2000      	movs	r0, #0
     42e:	4770      	bx	lr

00000430 <_i2c_master_wait_for_bus>:
     430:	b530      	push	{r4, r5, lr}
     432:	6802      	ldr	r2, [r0, #0]
     434:	2300      	movs	r3, #0
     436:	2401      	movs	r4, #1
     438:	2502      	movs	r5, #2
     43a:	e004      	b.n	446 <_i2c_master_wait_for_bus+0x16>
     43c:	3301      	adds	r3, #1
     43e:	b29b      	uxth	r3, r3
     440:	8901      	ldrh	r1, [r0, #8]
     442:	4299      	cmp	r1, r3
     444:	d907      	bls.n	456 <_i2c_master_wait_for_bus+0x26>
     446:	7e11      	ldrb	r1, [r2, #24]
     448:	4221      	tst	r1, r4
     44a:	d106      	bne.n	45a <_i2c_master_wait_for_bus+0x2a>
     44c:	7e11      	ldrb	r1, [r2, #24]
     44e:	4229      	tst	r1, r5
     450:	d0f4      	beq.n	43c <_i2c_master_wait_for_bus+0xc>
     452:	2000      	movs	r0, #0
     454:	e002      	b.n	45c <_i2c_master_wait_for_bus+0x2c>
     456:	2012      	movs	r0, #18
     458:	e000      	b.n	45c <_i2c_master_wait_for_bus+0x2c>
     45a:	2000      	movs	r0, #0
     45c:	bd30      	pop	{r4, r5, pc}
     45e:	46c0      	nop			; (mov r8, r8)

00000460 <_i2c_master_send_hs_master_code>:
     460:	b510      	push	{r4, lr}
     462:	6804      	ldr	r4, [r0, #0]
     464:	6863      	ldr	r3, [r4, #4]
     466:	2280      	movs	r2, #128	; 0x80
     468:	02d2      	lsls	r2, r2, #11
     46a:	4313      	orrs	r3, r2
     46c:	6063      	str	r3, [r4, #4]
     46e:	6261      	str	r1, [r4, #36]	; 0x24
     470:	4b02      	ldr	r3, [pc, #8]	; (47c <_i2c_master_send_hs_master_code+0x1c>)
     472:	4798      	blx	r3
     474:	2301      	movs	r3, #1
     476:	7623      	strb	r3, [r4, #24]
     478:	bd10      	pop	{r4, pc}
     47a:	46c0      	nop			; (mov r8, r8)
     47c:	00000431 	.word	0x00000431

00000480 <_i2c_master_write_packet>:
     480:	b5f0      	push	{r4, r5, r6, r7, lr}
     482:	465f      	mov	r7, fp
     484:	4656      	mov	r6, sl
     486:	464d      	mov	r5, r9
     488:	4644      	mov	r4, r8
     48a:	b4f0      	push	{r4, r5, r6, r7}
     48c:	b083      	sub	sp, #12
     48e:	0006      	movs	r6, r0
     490:	000f      	movs	r7, r1
     492:	6805      	ldr	r5, [r0, #0]
     494:	884c      	ldrh	r4, [r1, #2]
     496:	4b31      	ldr	r3, [pc, #196]	; (55c <_i2c_master_write_packet+0xdc>)
     498:	4798      	blx	r3
     49a:	7a7b      	ldrb	r3, [r7, #9]
     49c:	2b00      	cmp	r3, #0
     49e:	d003      	beq.n	4a8 <_i2c_master_write_packet+0x28>
     4a0:	7ab9      	ldrb	r1, [r7, #10]
     4a2:	0030      	movs	r0, r6
     4a4:	4b2e      	ldr	r3, [pc, #184]	; (560 <_i2c_master_write_packet+0xe0>)
     4a6:	4798      	blx	r3
     4a8:	686a      	ldr	r2, [r5, #4]
     4aa:	4b2e      	ldr	r3, [pc, #184]	; (564 <_i2c_master_write_packet+0xe4>)
     4ac:	4013      	ands	r3, r2
     4ae:	606b      	str	r3, [r5, #4]
     4b0:	7a3b      	ldrb	r3, [r7, #8]
     4b2:	2b00      	cmp	r3, #0
     4b4:	d009      	beq.n	4ca <_i2c_master_write_packet+0x4a>
     4b6:	883b      	ldrh	r3, [r7, #0]
     4b8:	005a      	lsls	r2, r3, #1
     4ba:	7a7b      	ldrb	r3, [r7, #9]
     4bc:	039b      	lsls	r3, r3, #14
     4be:	4313      	orrs	r3, r2
     4c0:	2280      	movs	r2, #128	; 0x80
     4c2:	0212      	lsls	r2, r2, #8
     4c4:	4313      	orrs	r3, r2
     4c6:	626b      	str	r3, [r5, #36]	; 0x24
     4c8:	e005      	b.n	4d6 <_i2c_master_write_packet+0x56>
     4ca:	883b      	ldrh	r3, [r7, #0]
     4cc:	005a      	lsls	r2, r3, #1
     4ce:	7a7b      	ldrb	r3, [r7, #9]
     4d0:	039b      	lsls	r3, r3, #14
     4d2:	4313      	orrs	r3, r2
     4d4:	626b      	str	r3, [r5, #36]	; 0x24
     4d6:	0030      	movs	r0, r6
     4d8:	4b23      	ldr	r3, [pc, #140]	; (568 <_i2c_master_write_packet+0xe8>)
     4da:	4798      	blx	r3
     4dc:	2800      	cmp	r0, #0
     4de:	d136      	bne.n	54e <_i2c_master_write_packet+0xce>
     4e0:	0030      	movs	r0, r6
     4e2:	4b22      	ldr	r3, [pc, #136]	; (56c <_i2c_master_write_packet+0xec>)
     4e4:	4798      	blx	r3
     4e6:	1e03      	subs	r3, r0, #0
     4e8:	9001      	str	r0, [sp, #4]
     4ea:	d130      	bne.n	54e <_i2c_master_write_packet+0xce>
     4ec:	46a0      	mov	r8, r4
     4ee:	2400      	movs	r4, #0
     4f0:	3320      	adds	r3, #32
     4f2:	4699      	mov	r9, r3
     4f4:	4b19      	ldr	r3, [pc, #100]	; (55c <_i2c_master_write_packet+0xdc>)
     4f6:	469b      	mov	fp, r3
     4f8:	4b1b      	ldr	r3, [pc, #108]	; (568 <_i2c_master_write_packet+0xe8>)
     4fa:	469a      	mov	sl, r3
     4fc:	e011      	b.n	522 <_i2c_master_write_packet+0xa2>
     4fe:	8b6b      	ldrh	r3, [r5, #26]
     500:	464a      	mov	r2, r9
     502:	4213      	tst	r3, r2
     504:	d022      	beq.n	54c <_i2c_master_write_packet+0xcc>
     506:	0030      	movs	r0, r6
     508:	47d8      	blx	fp
     50a:	687b      	ldr	r3, [r7, #4]
     50c:	5d1a      	ldrb	r2, [r3, r4]
     50e:	2328      	movs	r3, #40	; 0x28
     510:	54ea      	strb	r2, [r5, r3]
     512:	0030      	movs	r0, r6
     514:	47d0      	blx	sl
     516:	2800      	cmp	r0, #0
     518:	d106      	bne.n	528 <_i2c_master_write_packet+0xa8>
     51a:	8b6b      	ldrh	r3, [r5, #26]
     51c:	3401      	adds	r4, #1
     51e:	075b      	lsls	r3, r3, #29
     520:	d404      	bmi.n	52c <_i2c_master_write_packet+0xac>
     522:	45a0      	cmp	r8, r4
     524:	d1eb      	bne.n	4fe <_i2c_master_write_packet+0x7e>
     526:	e003      	b.n	530 <_i2c_master_write_packet+0xb0>
     528:	9001      	str	r0, [sp, #4]
     52a:	e001      	b.n	530 <_i2c_master_write_packet+0xb0>
     52c:	231e      	movs	r3, #30
     52e:	9301      	str	r3, [sp, #4]
     530:	7ab3      	ldrb	r3, [r6, #10]
     532:	9801      	ldr	r0, [sp, #4]
     534:	2b00      	cmp	r3, #0
     536:	d00a      	beq.n	54e <_i2c_master_write_packet+0xce>
     538:	0030      	movs	r0, r6
     53a:	4b08      	ldr	r3, [pc, #32]	; (55c <_i2c_master_write_packet+0xdc>)
     53c:	4798      	blx	r3
     53e:	686b      	ldr	r3, [r5, #4]
     540:	22c0      	movs	r2, #192	; 0xc0
     542:	0292      	lsls	r2, r2, #10
     544:	4313      	orrs	r3, r2
     546:	606b      	str	r3, [r5, #4]
     548:	9801      	ldr	r0, [sp, #4]
     54a:	e000      	b.n	54e <_i2c_master_write_packet+0xce>
     54c:	2041      	movs	r0, #65	; 0x41
     54e:	b003      	add	sp, #12
     550:	bc3c      	pop	{r2, r3, r4, r5}
     552:	4690      	mov	r8, r2
     554:	4699      	mov	r9, r3
     556:	46a2      	mov	sl, r4
     558:	46ab      	mov	fp, r5
     55a:	bdf0      	pop	{r4, r5, r6, r7, pc}
     55c:	00000115 	.word	0x00000115
     560:	00000461 	.word	0x00000461
     564:	fffbffff 	.word	0xfffbffff
     568:	00000431 	.word	0x00000431
     56c:	00000401 	.word	0x00000401

00000570 <i2c_master_write_packet_wait>:
     570:	b510      	push	{r4, lr}
     572:	8b83      	ldrh	r3, [r0, #28]
     574:	b29b      	uxth	r3, r3
     576:	2205      	movs	r2, #5
     578:	2b00      	cmp	r3, #0
     57a:	d105      	bne.n	588 <i2c_master_write_packet_wait+0x18>
     57c:	3301      	adds	r3, #1
     57e:	7283      	strb	r3, [r0, #10]
     580:	72c3      	strb	r3, [r0, #11]
     582:	4b02      	ldr	r3, [pc, #8]	; (58c <i2c_master_write_packet_wait+0x1c>)
     584:	4798      	blx	r3
     586:	0002      	movs	r2, r0
     588:	0010      	movs	r0, r2
     58a:	bd10      	pop	{r4, pc}
     58c:	00000481 	.word	0x00000481

00000590 <_i2c_master_wait_for_sync>:
     590:	6801      	ldr	r1, [r0, #0]
     592:	2207      	movs	r2, #7
     594:	69cb      	ldr	r3, [r1, #28]
     596:	421a      	tst	r2, r3
     598:	d1fc      	bne.n	594 <_i2c_master_wait_for_sync+0x4>
     59a:	4770      	bx	lr

0000059c <_i2c_master_read>:
     59c:	b570      	push	{r4, r5, r6, lr}
     59e:	0004      	movs	r4, r0
     5a0:	6806      	ldr	r6, [r0, #0]
     5a2:	6832      	ldr	r2, [r6, #0]
     5a4:	8b43      	ldrh	r3, [r0, #26]
     5a6:	8b85      	ldrh	r5, [r0, #28]
     5a8:	1b5d      	subs	r5, r3, r5
     5aa:	b2ad      	uxth	r5, r5
     5ac:	8b83      	ldrh	r3, [r0, #28]
     5ae:	3b01      	subs	r3, #1
     5b0:	b29b      	uxth	r3, r3
     5b2:	8383      	strh	r3, [r0, #28]
     5b4:	0113      	lsls	r3, r2, #4
     5b6:	d50c      	bpl.n	5d2 <_i2c_master_read+0x36>
     5b8:	7ac3      	ldrb	r3, [r0, #11]
     5ba:	2b00      	cmp	r3, #0
     5bc:	d015      	beq.n	5ea <_i2c_master_read+0x4e>
     5be:	8b83      	ldrh	r3, [r0, #28]
     5c0:	b29b      	uxth	r3, r3
     5c2:	2b01      	cmp	r3, #1
     5c4:	d111      	bne.n	5ea <_i2c_master_read+0x4e>
     5c6:	6873      	ldr	r3, [r6, #4]
     5c8:	2280      	movs	r2, #128	; 0x80
     5ca:	02d2      	lsls	r2, r2, #11
     5cc:	4313      	orrs	r3, r2
     5ce:	6073      	str	r3, [r6, #4]
     5d0:	e00b      	b.n	5ea <_i2c_master_read+0x4e>
     5d2:	7ac3      	ldrb	r3, [r0, #11]
     5d4:	2b00      	cmp	r3, #0
     5d6:	d008      	beq.n	5ea <_i2c_master_read+0x4e>
     5d8:	8b83      	ldrh	r3, [r0, #28]
     5da:	b29b      	uxth	r3, r3
     5dc:	2b00      	cmp	r3, #0
     5de:	d104      	bne.n	5ea <_i2c_master_read+0x4e>
     5e0:	6873      	ldr	r3, [r6, #4]
     5e2:	2280      	movs	r2, #128	; 0x80
     5e4:	02d2      	lsls	r2, r2, #11
     5e6:	4313      	orrs	r3, r2
     5e8:	6073      	str	r3, [r6, #4]
     5ea:	8ba3      	ldrh	r3, [r4, #28]
     5ec:	b29b      	uxth	r3, r3
     5ee:	2b00      	cmp	r3, #0
     5f0:	d10a      	bne.n	608 <_i2c_master_read+0x6c>
     5f2:	7aa3      	ldrb	r3, [r4, #10]
     5f4:	2b00      	cmp	r3, #0
     5f6:	d007      	beq.n	608 <_i2c_master_read+0x6c>
     5f8:	0020      	movs	r0, r4
     5fa:	4b08      	ldr	r3, [pc, #32]	; (61c <_i2c_master_read+0x80>)
     5fc:	4798      	blx	r3
     5fe:	6873      	ldr	r3, [r6, #4]
     600:	22c0      	movs	r2, #192	; 0xc0
     602:	0292      	lsls	r2, r2, #10
     604:	4313      	orrs	r3, r2
     606:	6073      	str	r3, [r6, #4]
     608:	0020      	movs	r0, r4
     60a:	4b04      	ldr	r3, [pc, #16]	; (61c <_i2c_master_read+0x80>)
     60c:	4798      	blx	r3
     60e:	6a23      	ldr	r3, [r4, #32]
     610:	195d      	adds	r5, r3, r5
     612:	2328      	movs	r3, #40	; 0x28
     614:	5cf3      	ldrb	r3, [r6, r3]
     616:	b2db      	uxtb	r3, r3
     618:	702b      	strb	r3, [r5, #0]
     61a:	bd70      	pop	{r4, r5, r6, pc}
     61c:	00000591 	.word	0x00000591

00000620 <_i2c_master_write>:
     620:	b570      	push	{r4, r5, r6, lr}
     622:	0004      	movs	r4, r0
     624:	6806      	ldr	r6, [r0, #0]
     626:	8b73      	ldrh	r3, [r6, #26]
     628:	075b      	lsls	r3, r3, #29
     62a:	d503      	bpl.n	634 <_i2c_master_write+0x14>
     62c:	221e      	movs	r2, #30
     62e:	2325      	movs	r3, #37	; 0x25
     630:	54c2      	strb	r2, [r0, r3]
     632:	e00f      	b.n	654 <_i2c_master_write+0x34>
     634:	8b43      	ldrh	r3, [r0, #26]
     636:	8b85      	ldrh	r5, [r0, #28]
     638:	1b5d      	subs	r5, r3, r5
     63a:	b2ad      	uxth	r5, r5
     63c:	8b83      	ldrh	r3, [r0, #28]
     63e:	3b01      	subs	r3, #1
     640:	b29b      	uxth	r3, r3
     642:	8383      	strh	r3, [r0, #28]
     644:	4b04      	ldr	r3, [pc, #16]	; (658 <_i2c_master_write+0x38>)
     646:	4798      	blx	r3
     648:	6a23      	ldr	r3, [r4, #32]
     64a:	195d      	adds	r5, r3, r5
     64c:	782b      	ldrb	r3, [r5, #0]
     64e:	b2db      	uxtb	r3, r3
     650:	2228      	movs	r2, #40	; 0x28
     652:	54b3      	strb	r3, [r6, r2]
     654:	bd70      	pop	{r4, r5, r6, pc}
     656:	46c0      	nop			; (mov r8, r8)
     658:	00000591 	.word	0x00000591

0000065c <_i2c_master_interrupt_handler>:
     65c:	b570      	push	{r4, r5, r6, lr}
     65e:	0080      	lsls	r0, r0, #2
     660:	4b6f      	ldr	r3, [pc, #444]	; (820 <_i2c_master_interrupt_handler+0x1c4>)
     662:	58c4      	ldr	r4, [r0, r3]
     664:	6825      	ldr	r5, [r4, #0]
     666:	682b      	ldr	r3, [r5, #0]
     668:	011b      	lsls	r3, r3, #4
     66a:	0fda      	lsrs	r2, r3, #31
     66c:	7e63      	ldrb	r3, [r4, #25]
     66e:	7e26      	ldrb	r6, [r4, #24]
     670:	401e      	ands	r6, r3
     672:	8b63      	ldrh	r3, [r4, #26]
     674:	b29b      	uxth	r3, r3
     676:	2b00      	cmp	r3, #0
     678:	d135      	bne.n	6e6 <_i2c_master_interrupt_handler+0x8a>
     67a:	8ba3      	ldrh	r3, [r4, #28]
     67c:	b29b      	uxth	r3, r3
     67e:	2b00      	cmp	r3, #0
     680:	d031      	beq.n	6e6 <_i2c_master_interrupt_handler+0x8a>
     682:	7e2b      	ldrb	r3, [r5, #24]
     684:	07db      	lsls	r3, r3, #31
     686:	d51b      	bpl.n	6c0 <_i2c_master_interrupt_handler+0x64>
     688:	2301      	movs	r3, #1
     68a:	762b      	strb	r3, [r5, #24]
     68c:	8b6b      	ldrh	r3, [r5, #26]
     68e:	079b      	lsls	r3, r3, #30
     690:	d503      	bpl.n	69a <_i2c_master_interrupt_handler+0x3e>
     692:	2241      	movs	r2, #65	; 0x41
     694:	2325      	movs	r3, #37	; 0x25
     696:	54e2      	strb	r2, [r4, r3]
     698:	e012      	b.n	6c0 <_i2c_master_interrupt_handler+0x64>
     69a:	8b6b      	ldrh	r3, [r5, #26]
     69c:	075b      	lsls	r3, r3, #29
     69e:	d50f      	bpl.n	6c0 <_i2c_master_interrupt_handler+0x64>
     6a0:	2218      	movs	r2, #24
     6a2:	2325      	movs	r3, #37	; 0x25
     6a4:	54e2      	strb	r2, [r4, r3]
     6a6:	2300      	movs	r3, #0
     6a8:	83a3      	strh	r3, [r4, #28]
     6aa:	7aa3      	ldrb	r3, [r4, #10]
     6ac:	2b00      	cmp	r3, #0
     6ae:	d007      	beq.n	6c0 <_i2c_master_interrupt_handler+0x64>
     6b0:	0020      	movs	r0, r4
     6b2:	4b5c      	ldr	r3, [pc, #368]	; (824 <_i2c_master_interrupt_handler+0x1c8>)
     6b4:	4798      	blx	r3
     6b6:	686b      	ldr	r3, [r5, #4]
     6b8:	22c0      	movs	r2, #192	; 0xc0
     6ba:	0292      	lsls	r2, r2, #10
     6bc:	4313      	orrs	r3, r2
     6be:	606b      	str	r3, [r5, #4]
     6c0:	8ba3      	ldrh	r3, [r4, #28]
     6c2:	b29b      	uxth	r3, r3
     6c4:	8363      	strh	r3, [r4, #26]
     6c6:	2325      	movs	r3, #37	; 0x25
     6c8:	5ce3      	ldrb	r3, [r4, r3]
     6ca:	2b05      	cmp	r3, #5
     6cc:	d156      	bne.n	77c <_i2c_master_interrupt_handler+0x120>
     6ce:	331f      	adds	r3, #31
     6d0:	5ce3      	ldrb	r3, [r4, r3]
     6d2:	2b00      	cmp	r3, #0
     6d4:	d103      	bne.n	6de <_i2c_master_interrupt_handler+0x82>
     6d6:	0020      	movs	r0, r4
     6d8:	4b53      	ldr	r3, [pc, #332]	; (828 <_i2c_master_interrupt_handler+0x1cc>)
     6da:	4798      	blx	r3
     6dc:	e04e      	b.n	77c <_i2c_master_interrupt_handler+0x120>
     6de:	0020      	movs	r0, r4
     6e0:	4b52      	ldr	r3, [pc, #328]	; (82c <_i2c_master_interrupt_handler+0x1d0>)
     6e2:	4798      	blx	r3
     6e4:	e04a      	b.n	77c <_i2c_master_interrupt_handler+0x120>
     6e6:	8b63      	ldrh	r3, [r4, #26]
     6e8:	b29b      	uxth	r3, r3
     6ea:	2b00      	cmp	r3, #0
     6ec:	d026      	beq.n	73c <_i2c_master_interrupt_handler+0xe0>
     6ee:	8ba3      	ldrh	r3, [r4, #28]
     6f0:	b29b      	uxth	r3, r3
     6f2:	2b00      	cmp	r3, #0
     6f4:	d122      	bne.n	73c <_i2c_master_interrupt_handler+0xe0>
     6f6:	3325      	adds	r3, #37	; 0x25
     6f8:	5ce3      	ldrb	r3, [r4, r3]
     6fa:	2b05      	cmp	r3, #5
     6fc:	d11e      	bne.n	73c <_i2c_master_interrupt_handler+0xe0>
     6fe:	331f      	adds	r3, #31
     700:	5ce3      	ldrb	r3, [r4, r3]
     702:	2b00      	cmp	r3, #0
     704:	d11a      	bne.n	73c <_i2c_master_interrupt_handler+0xe0>
     706:	3303      	adds	r3, #3
     708:	752b      	strb	r3, [r5, #20]
     70a:	2300      	movs	r3, #0
     70c:	8363      	strh	r3, [r4, #26]
     70e:	3325      	adds	r3, #37	; 0x25
     710:	2200      	movs	r2, #0
     712:	54e2      	strb	r2, [r4, r3]
     714:	7aa3      	ldrb	r3, [r4, #10]
     716:	2b00      	cmp	r3, #0
     718:	d008      	beq.n	72c <_i2c_master_interrupt_handler+0xd0>
     71a:	0020      	movs	r0, r4
     71c:	4b41      	ldr	r3, [pc, #260]	; (824 <_i2c_master_interrupt_handler+0x1c8>)
     71e:	4798      	blx	r3
     720:	686b      	ldr	r3, [r5, #4]
     722:	22c0      	movs	r2, #192	; 0xc0
     724:	0292      	lsls	r2, r2, #10
     726:	4313      	orrs	r3, r2
     728:	606b      	str	r3, [r5, #4]
     72a:	e001      	b.n	730 <_i2c_master_interrupt_handler+0xd4>
     72c:	2301      	movs	r3, #1
     72e:	762b      	strb	r3, [r5, #24]
     730:	07f3      	lsls	r3, r6, #31
     732:	d523      	bpl.n	77c <_i2c_master_interrupt_handler+0x120>
     734:	68e3      	ldr	r3, [r4, #12]
     736:	0020      	movs	r0, r4
     738:	4798      	blx	r3
     73a:	e01f      	b.n	77c <_i2c_master_interrupt_handler+0x120>
     73c:	8b63      	ldrh	r3, [r4, #26]
     73e:	b29b      	uxth	r3, r3
     740:	2b00      	cmp	r3, #0
     742:	d01b      	beq.n	77c <_i2c_master_interrupt_handler+0x120>
     744:	8ba3      	ldrh	r3, [r4, #28]
     746:	b29b      	uxth	r3, r3
     748:	2b00      	cmp	r3, #0
     74a:	d017      	beq.n	77c <_i2c_master_interrupt_handler+0x120>
     74c:	8b6b      	ldrh	r3, [r5, #26]
     74e:	069b      	lsls	r3, r3, #26
     750:	d409      	bmi.n	766 <_i2c_master_interrupt_handler+0x10a>
     752:	2a00      	cmp	r2, #0
     754:	d003      	beq.n	75e <_i2c_master_interrupt_handler+0x102>
     756:	8ba3      	ldrh	r3, [r4, #28]
     758:	b29b      	uxth	r3, r3
     75a:	2b01      	cmp	r3, #1
     75c:	d003      	beq.n	766 <_i2c_master_interrupt_handler+0x10a>
     75e:	2241      	movs	r2, #65	; 0x41
     760:	2325      	movs	r3, #37	; 0x25
     762:	54e2      	strb	r2, [r4, r3]
     764:	e00a      	b.n	77c <_i2c_master_interrupt_handler+0x120>
     766:	2324      	movs	r3, #36	; 0x24
     768:	5ce3      	ldrb	r3, [r4, r3]
     76a:	2b00      	cmp	r3, #0
     76c:	d103      	bne.n	776 <_i2c_master_interrupt_handler+0x11a>
     76e:	0020      	movs	r0, r4
     770:	4b2d      	ldr	r3, [pc, #180]	; (828 <_i2c_master_interrupt_handler+0x1cc>)
     772:	4798      	blx	r3
     774:	e002      	b.n	77c <_i2c_master_interrupt_handler+0x120>
     776:	0020      	movs	r0, r4
     778:	4b2c      	ldr	r3, [pc, #176]	; (82c <_i2c_master_interrupt_handler+0x1d0>)
     77a:	4798      	blx	r3
     77c:	8b63      	ldrh	r3, [r4, #26]
     77e:	b29b      	uxth	r3, r3
     780:	2b00      	cmp	r3, #0
     782:	d02a      	beq.n	7da <_i2c_master_interrupt_handler+0x17e>
     784:	8ba3      	ldrh	r3, [r4, #28]
     786:	b29b      	uxth	r3, r3
     788:	2b00      	cmp	r3, #0
     78a:	d126      	bne.n	7da <_i2c_master_interrupt_handler+0x17e>
     78c:	3325      	adds	r3, #37	; 0x25
     78e:	5ce3      	ldrb	r3, [r4, r3]
     790:	2b05      	cmp	r3, #5
     792:	d122      	bne.n	7da <_i2c_master_interrupt_handler+0x17e>
     794:	331f      	adds	r3, #31
     796:	5ce3      	ldrb	r3, [r4, r3]
     798:	2b01      	cmp	r3, #1
     79a:	d11e      	bne.n	7da <_i2c_master_interrupt_handler+0x17e>
     79c:	7e2b      	ldrb	r3, [r5, #24]
     79e:	079b      	lsls	r3, r3, #30
     7a0:	d501      	bpl.n	7a6 <_i2c_master_interrupt_handler+0x14a>
     7a2:	2302      	movs	r3, #2
     7a4:	762b      	strb	r3, [r5, #24]
     7a6:	2303      	movs	r3, #3
     7a8:	752b      	strb	r3, [r5, #20]
     7aa:	2300      	movs	r3, #0
     7ac:	8363      	strh	r3, [r4, #26]
     7ae:	3325      	adds	r3, #37	; 0x25
     7b0:	2200      	movs	r2, #0
     7b2:	54e2      	strb	r2, [r4, r3]
     7b4:	07b3      	lsls	r3, r6, #30
     7b6:	d507      	bpl.n	7c8 <_i2c_master_interrupt_handler+0x16c>
     7b8:	2324      	movs	r3, #36	; 0x24
     7ba:	5ce3      	ldrb	r3, [r4, r3]
     7bc:	2b01      	cmp	r3, #1
     7be:	d103      	bne.n	7c8 <_i2c_master_interrupt_handler+0x16c>
     7c0:	6923      	ldr	r3, [r4, #16]
     7c2:	0020      	movs	r0, r4
     7c4:	4798      	blx	r3
     7c6:	e008      	b.n	7da <_i2c_master_interrupt_handler+0x17e>
     7c8:	07f3      	lsls	r3, r6, #31
     7ca:	d506      	bpl.n	7da <_i2c_master_interrupt_handler+0x17e>
     7cc:	2324      	movs	r3, #36	; 0x24
     7ce:	5ce3      	ldrb	r3, [r4, r3]
     7d0:	2b00      	cmp	r3, #0
     7d2:	d102      	bne.n	7da <_i2c_master_interrupt_handler+0x17e>
     7d4:	68e3      	ldr	r3, [r4, #12]
     7d6:	0020      	movs	r0, r4
     7d8:	4798      	blx	r3
     7da:	2325      	movs	r3, #37	; 0x25
     7dc:	5ce3      	ldrb	r3, [r4, r3]
     7de:	2b05      	cmp	r3, #5
     7e0:	d01c      	beq.n	81c <_i2c_master_interrupt_handler+0x1c0>
     7e2:	2325      	movs	r3, #37	; 0x25
     7e4:	5ce3      	ldrb	r3, [r4, r3]
     7e6:	2b00      	cmp	r3, #0
     7e8:	d018      	beq.n	81c <_i2c_master_interrupt_handler+0x1c0>
     7ea:	2303      	movs	r3, #3
     7ec:	752b      	strb	r3, [r5, #20]
     7ee:	2300      	movs	r3, #0
     7f0:	8363      	strh	r3, [r4, #26]
     7f2:	83a3      	strh	r3, [r4, #28]
     7f4:	3325      	adds	r3, #37	; 0x25
     7f6:	5ce3      	ldrb	r3, [r4, r3]
     7f8:	2b41      	cmp	r3, #65	; 0x41
     7fa:	d00a      	beq.n	812 <_i2c_master_interrupt_handler+0x1b6>
     7fc:	7aa3      	ldrb	r3, [r4, #10]
     7fe:	2b00      	cmp	r3, #0
     800:	d007      	beq.n	812 <_i2c_master_interrupt_handler+0x1b6>
     802:	0020      	movs	r0, r4
     804:	4b07      	ldr	r3, [pc, #28]	; (824 <_i2c_master_interrupt_handler+0x1c8>)
     806:	4798      	blx	r3
     808:	686b      	ldr	r3, [r5, #4]
     80a:	22e0      	movs	r2, #224	; 0xe0
     80c:	02d2      	lsls	r2, r2, #11
     80e:	4313      	orrs	r3, r2
     810:	606b      	str	r3, [r5, #4]
     812:	0773      	lsls	r3, r6, #29
     814:	d502      	bpl.n	81c <_i2c_master_interrupt_handler+0x1c0>
     816:	6963      	ldr	r3, [r4, #20]
     818:	0020      	movs	r0, r4
     81a:	4798      	blx	r3
     81c:	bd70      	pop	{r4, r5, r6, pc}
     81e:	46c0      	nop			; (mov r8, r8)
     820:	200001cc 	.word	0x200001cc
     824:	00000591 	.word	0x00000591
     828:	00000621 	.word	0x00000621
     82c:	0000059d 	.word	0x0000059d

00000830 <basic_pin_setting>:
     830:	b530      	push	{r4, r5, lr}
     832:	b083      	sub	sp, #12
     834:	ad01      	add	r5, sp, #4
     836:	2200      	movs	r2, #0
     838:	702a      	strb	r2, [r5, #0]
     83a:	2301      	movs	r3, #1
     83c:	706b      	strb	r3, [r5, #1]
     83e:	70aa      	strb	r2, [r5, #2]
     840:	4669      	mov	r1, sp
     842:	704b      	strb	r3, [r1, #1]
     844:	708a      	strb	r2, [r1, #2]
     846:	700b      	strb	r3, [r1, #0]
     848:	200e      	movs	r0, #14
     84a:	4c10      	ldr	r4, [pc, #64]	; (88c <basic_pin_setting+0x5c>)
     84c:	47a0      	blx	r4
     84e:	4669      	mov	r1, sp
     850:	2008      	movs	r0, #8
     852:	47a0      	blx	r4
     854:	4669      	mov	r1, sp
     856:	200d      	movs	r0, #13
     858:	47a0      	blx	r4
     85a:	4669      	mov	r1, sp
     85c:	201c      	movs	r0, #28
     85e:	47a0      	blx	r4
     860:	0029      	movs	r1, r5
     862:	200f      	movs	r0, #15
     864:	47a0      	blx	r4
     866:	0029      	movs	r1, r5
     868:	2017      	movs	r0, #23
     86a:	47a0      	blx	r4
     86c:	4b08      	ldr	r3, [pc, #32]	; (890 <basic_pin_setting+0x60>)
     86e:	2280      	movs	r2, #128	; 0x80
     870:	01d2      	lsls	r2, r2, #7
     872:	619a      	str	r2, [r3, #24]
     874:	2280      	movs	r2, #128	; 0x80
     876:	0052      	lsls	r2, r2, #1
     878:	619a      	str	r2, [r3, #24]
     87a:	2280      	movs	r2, #128	; 0x80
     87c:	0192      	lsls	r2, r2, #6
     87e:	615a      	str	r2, [r3, #20]
     880:	2280      	movs	r2, #128	; 0x80
     882:	0552      	lsls	r2, r2, #21
     884:	615a      	str	r2, [r3, #20]
     886:	b003      	add	sp, #12
     888:	bd30      	pop	{r4, r5, pc}
     88a:	46c0      	nop			; (mov r8, r8)
     88c:	00001a99 	.word	0x00001a99
     890:	41004400 	.word	0x41004400

00000894 <configure_tc>:
     894:	b510      	push	{r4, lr}
     896:	4a15      	ldr	r2, [pc, #84]	; (8ec <configure_tc+0x58>)
     898:	2300      	movs	r3, #0
     89a:	2100      	movs	r1, #0
     89c:	7093      	strb	r3, [r2, #2]
     89e:	7193      	strb	r3, [r2, #6]
     8a0:	8113      	strh	r3, [r2, #8]
     8a2:	2000      	movs	r0, #0
     8a4:	7050      	strb	r0, [r2, #1]
     8a6:	7291      	strb	r1, [r2, #10]
     8a8:	7311      	strb	r1, [r2, #12]
     8aa:	7391      	strb	r1, [r2, #14]
     8ac:	7351      	strb	r1, [r2, #13]
     8ae:	7411      	strb	r1, [r2, #16]
     8b0:	6153      	str	r3, [r2, #20]
     8b2:	6193      	str	r3, [r2, #24]
     8b4:	7711      	strb	r1, [r2, #28]
     8b6:	6213      	str	r3, [r2, #32]
     8b8:	6253      	str	r3, [r2, #36]	; 0x24
     8ba:	8513      	strh	r3, [r2, #40]	; 0x28
     8bc:	8553      	strh	r3, [r2, #42]	; 0x2a
     8be:	8593      	strh	r3, [r2, #44]	; 0x2c
     8c0:	3303      	adds	r3, #3
     8c2:	7013      	strb	r3, [r2, #0]
     8c4:	23c0      	movs	r3, #192	; 0xc0
     8c6:	009b      	lsls	r3, r3, #2
     8c8:	8093      	strh	r3, [r2, #4]
     8ca:	2301      	movs	r3, #1
     8cc:	72d3      	strb	r3, [r2, #11]
     8ce:	4c08      	ldr	r4, [pc, #32]	; (8f0 <configure_tc+0x5c>)
     8d0:	4908      	ldr	r1, [pc, #32]	; (8f4 <configure_tc+0x60>)
     8d2:	0020      	movs	r0, r4
     8d4:	4b08      	ldr	r3, [pc, #32]	; (8f8 <configure_tc+0x64>)
     8d6:	4798      	blx	r3
     8d8:	6822      	ldr	r2, [r4, #0]
     8da:	217f      	movs	r1, #127	; 0x7f
     8dc:	7bd3      	ldrb	r3, [r2, #15]
     8de:	438b      	bics	r3, r1
     8e0:	d1fc      	bne.n	8dc <configure_tc+0x48>
     8e2:	8811      	ldrh	r1, [r2, #0]
     8e4:	3302      	adds	r3, #2
     8e6:	430b      	orrs	r3, r1
     8e8:	8013      	strh	r3, [r2, #0]
     8ea:	bd10      	pop	{r4, pc}
     8ec:	200000ec 	.word	0x200000ec
     8f0:	20000120 	.word	0x20000120
     8f4:	42002c00 	.word	0x42002c00
     8f8:	00000b59 	.word	0x00000b59

000008fc <configure_i2c_master>:
     8fc:	b530      	push	{r4, r5, lr}
     8fe:	b08f      	sub	sp, #60	; 0x3c
     900:	aa01      	add	r2, sp, #4
     902:	2364      	movs	r3, #100	; 0x64
     904:	9301      	str	r3, [sp, #4]
     906:	4b22      	ldr	r3, [pc, #136]	; (990 <configure_i2c_master+0x94>)
     908:	6053      	str	r3, [r2, #4]
     90a:	2300      	movs	r3, #0
     90c:	6093      	str	r3, [r2, #8]
     90e:	7313      	strb	r3, [r2, #12]
     910:	7613      	strb	r3, [r2, #24]
     912:	2180      	movs	r1, #128	; 0x80
     914:	0389      	lsls	r1, r1, #14
     916:	6111      	str	r1, [r2, #16]
     918:	2101      	movs	r1, #1
     91a:	4249      	negs	r1, r1
     91c:	8291      	strh	r1, [r2, #20]
     91e:	3125      	adds	r1, #37	; 0x25
     920:	5453      	strb	r3, [r2, r1]
     922:	6293      	str	r3, [r2, #40]	; 0x28
     924:	3108      	adds	r1, #8
     926:	5453      	strb	r3, [r2, r1]
     928:	3101      	adds	r1, #1
     92a:	5453      	strb	r3, [r2, r1]
     92c:	3101      	adds	r1, #1
     92e:	5453      	strb	r3, [r2, r1]
     930:	33d7      	adds	r3, #215	; 0xd7
     932:	8613      	strh	r3, [r2, #48]	; 0x30
     934:	4b17      	ldr	r3, [pc, #92]	; (994 <configure_i2c_master+0x98>)
     936:	61d3      	str	r3, [r2, #28]
     938:	4b17      	ldr	r3, [pc, #92]	; (998 <configure_i2c_master+0x9c>)
     93a:	6213      	str	r3, [r2, #32]
     93c:	4b17      	ldr	r3, [pc, #92]	; (99c <configure_i2c_master+0xa0>)
     93e:	82d3      	strh	r3, [r2, #22]
     940:	4c17      	ldr	r4, [pc, #92]	; (9a0 <configure_i2c_master+0xa4>)
     942:	4918      	ldr	r1, [pc, #96]	; (9a4 <configure_i2c_master+0xa8>)
     944:	0020      	movs	r0, r4
     946:	4b18      	ldr	r3, [pc, #96]	; (9a8 <configure_i2c_master+0xac>)
     948:	4798      	blx	r3
     94a:	6824      	ldr	r4, [r4, #0]
     94c:	2207      	movs	r2, #7
     94e:	69e3      	ldr	r3, [r4, #28]
     950:	421a      	tst	r2, r3
     952:	d1fc      	bne.n	94e <configure_i2c_master+0x52>
     954:	6822      	ldr	r2, [r4, #0]
     956:	2302      	movs	r3, #2
     958:	4313      	orrs	r3, r2
     95a:	6023      	str	r3, [r4, #0]
     95c:	4d10      	ldr	r5, [pc, #64]	; (9a0 <configure_i2c_master+0xa4>)
     95e:	6828      	ldr	r0, [r5, #0]
     960:	4b12      	ldr	r3, [pc, #72]	; (9ac <configure_i2c_master+0xb0>)
     962:	4798      	blx	r3
     964:	231f      	movs	r3, #31
     966:	4018      	ands	r0, r3
     968:	3b1e      	subs	r3, #30
     96a:	4083      	lsls	r3, r0
     96c:	4a10      	ldr	r2, [pc, #64]	; (9b0 <configure_i2c_master+0xb4>)
     96e:	6013      	str	r3, [r2, #0]
     970:	88e8      	ldrh	r0, [r5, #6]
     972:	2300      	movs	r3, #0
     974:	2110      	movs	r1, #16
     976:	e005      	b.n	984 <configure_i2c_master+0x88>
     978:	3301      	adds	r3, #1
     97a:	4283      	cmp	r3, r0
     97c:	d302      	bcc.n	984 <configure_i2c_master+0x88>
     97e:	2310      	movs	r3, #16
     980:	8363      	strh	r3, [r4, #26]
     982:	e002      	b.n	98a <configure_i2c_master+0x8e>
     984:	8b62      	ldrh	r2, [r4, #26]
     986:	420a      	tst	r2, r1
     988:	d0f6      	beq.n	978 <configure_i2c_master+0x7c>
     98a:	b00f      	add	sp, #60	; 0x3c
     98c:	bd30      	pop	{r4, r5, pc}
     98e:	46c0      	nop			; (mov r8, r8)
     990:	00000d48 	.word	0x00000d48
     994:	00100002 	.word	0x00100002
     998:	00110002 	.word	0x00110002
     99c:	00002710 	.word	0x00002710
     9a0:	2000013c 	.word	0x2000013c
     9a4:	42000c00 	.word	0x42000c00
     9a8:	00000121 	.word	0x00000121
     9ac:	00001965 	.word	0x00001965
     9b0:	e000e100 	.word	0xe000e100

000009b4 <EVSYS_Handler>:
     9b4:	b510      	push	{r4, lr}
     9b6:	4b0b      	ldr	r3, [pc, #44]	; (9e4 <EVSYS_Handler+0x30>)
     9b8:	691c      	ldr	r4, [r3, #16]
     9ba:	490b      	ldr	r1, [pc, #44]	; (9e8 <EVSYS_Handler+0x34>)
     9bc:	6988      	ldr	r0, [r1, #24]
     9be:	689a      	ldr	r2, [r3, #8]
     9c0:	4302      	orrs	r2, r0
     9c2:	609a      	str	r2, [r3, #8]
     9c4:	4b09      	ldr	r3, [pc, #36]	; (9ec <EVSYS_Handler+0x38>)
     9c6:	618b      	str	r3, [r1, #24]
     9c8:	2c00      	cmp	r4, #0
     9ca:	d005      	beq.n	9d8 <EVSYS_Handler+0x24>
     9cc:	6820      	ldr	r0, [r4, #0]
     9ce:	6863      	ldr	r3, [r4, #4]
     9d0:	4798      	blx	r3
     9d2:	68a4      	ldr	r4, [r4, #8]
     9d4:	2c00      	cmp	r4, #0
     9d6:	d1f9      	bne.n	9cc <EVSYS_Handler+0x18>
     9d8:	4b02      	ldr	r3, [pc, #8]	; (9e4 <EVSYS_Handler+0x30>)
     9da:	68d9      	ldr	r1, [r3, #12]
     9dc:	689a      	ldr	r2, [r3, #8]
     9de:	438a      	bics	r2, r1
     9e0:	609a      	str	r2, [r3, #8]
     9e2:	bd10      	pop	{r4, pc}
     9e4:	20000000 	.word	0x20000000
     9e8:	42000400 	.word	0x42000400
     9ec:	0f0fffff 	.word	0x0f0fffff

000009f0 <_system_events_init>:
     9f0:	4a06      	ldr	r2, [pc, #24]	; (a0c <_system_events_init+0x1c>)
     9f2:	6a11      	ldr	r1, [r2, #32]
     9f4:	2302      	movs	r3, #2
     9f6:	430b      	orrs	r3, r1
     9f8:	6213      	str	r3, [r2, #32]
     9fa:	2201      	movs	r2, #1
     9fc:	4b04      	ldr	r3, [pc, #16]	; (a10 <_system_events_init+0x20>)
     9fe:	701a      	strb	r2, [r3, #0]
     a00:	0019      	movs	r1, r3
     a02:	780b      	ldrb	r3, [r1, #0]
     a04:	4213      	tst	r3, r2
     a06:	d1fc      	bne.n	a02 <_system_events_init+0x12>
     a08:	4770      	bx	lr
     a0a:	46c0      	nop			; (mov r8, r8)
     a0c:	40000400 	.word	0x40000400
     a10:	42000400 	.word	0x42000400

00000a14 <_extint_enable>:
     a14:	4a04      	ldr	r2, [pc, #16]	; (a28 <_extint_enable+0x14>)
     a16:	7811      	ldrb	r1, [r2, #0]
     a18:	2302      	movs	r3, #2
     a1a:	430b      	orrs	r3, r1
     a1c:	7013      	strb	r3, [r2, #0]
     a1e:	7853      	ldrb	r3, [r2, #1]
     a20:	b25b      	sxtb	r3, r3
     a22:	2b00      	cmp	r3, #0
     a24:	dbfb      	blt.n	a1e <_extint_enable+0xa>
     a26:	4770      	bx	lr
     a28:	40001800 	.word	0x40001800

00000a2c <_system_extint_init>:
     a2c:	b500      	push	{lr}
     a2e:	b083      	sub	sp, #12
     a30:	4a12      	ldr	r2, [pc, #72]	; (a7c <_system_extint_init+0x50>)
     a32:	6991      	ldr	r1, [r2, #24]
     a34:	2340      	movs	r3, #64	; 0x40
     a36:	430b      	orrs	r3, r1
     a38:	6193      	str	r3, [r2, #24]
     a3a:	a901      	add	r1, sp, #4
     a3c:	2300      	movs	r3, #0
     a3e:	700b      	strb	r3, [r1, #0]
     a40:	2005      	movs	r0, #5
     a42:	4b0f      	ldr	r3, [pc, #60]	; (a80 <_system_extint_init+0x54>)
     a44:	4798      	blx	r3
     a46:	2005      	movs	r0, #5
     a48:	4b0e      	ldr	r3, [pc, #56]	; (a84 <_system_extint_init+0x58>)
     a4a:	4798      	blx	r3
     a4c:	4a0e      	ldr	r2, [pc, #56]	; (a88 <_system_extint_init+0x5c>)
     a4e:	7811      	ldrb	r1, [r2, #0]
     a50:	2301      	movs	r3, #1
     a52:	430b      	orrs	r3, r1
     a54:	7013      	strb	r3, [r2, #0]
     a56:	7853      	ldrb	r3, [r2, #1]
     a58:	b25b      	sxtb	r3, r3
     a5a:	2b00      	cmp	r3, #0
     a5c:	dbfb      	blt.n	a56 <_system_extint_init+0x2a>
     a5e:	4b0b      	ldr	r3, [pc, #44]	; (a8c <_system_extint_init+0x60>)
     a60:	0019      	movs	r1, r3
     a62:	3140      	adds	r1, #64	; 0x40
     a64:	2200      	movs	r2, #0
     a66:	c304      	stmia	r3!, {r2}
     a68:	4299      	cmp	r1, r3
     a6a:	d1fc      	bne.n	a66 <_system_extint_init+0x3a>
     a6c:	2210      	movs	r2, #16
     a6e:	4b08      	ldr	r3, [pc, #32]	; (a90 <_system_extint_init+0x64>)
     a70:	601a      	str	r2, [r3, #0]
     a72:	4b08      	ldr	r3, [pc, #32]	; (a94 <_system_extint_init+0x68>)
     a74:	4798      	blx	r3
     a76:	b003      	add	sp, #12
     a78:	bd00      	pop	{pc}
     a7a:	46c0      	nop			; (mov r8, r8)
     a7c:	40000400 	.word	0x40000400
     a80:	00001f25 	.word	0x00001f25
     a84:	00001e99 	.word	0x00001e99
     a88:	40001800 	.word	0x40001800
     a8c:	20000164 	.word	0x20000164
     a90:	e000e100 	.word	0xe000e100
     a94:	00000a15 	.word	0x00000a15

00000a98 <_tcc_interrupt_handler>:
     a98:	b5f8      	push	{r3, r4, r5, r6, r7, lr}
     a9a:	464f      	mov	r7, r9
     a9c:	4646      	mov	r6, r8
     a9e:	b4c0      	push	{r6, r7}
     aa0:	0080      	lsls	r0, r0, #2
     aa2:	4b11      	ldr	r3, [pc, #68]	; (ae8 <_tcc_interrupt_handler+0x50>)
     aa4:	58c3      	ldr	r3, [r0, r3]
     aa6:	4699      	mov	r9, r3
     aa8:	681b      	ldr	r3, [r3, #0]
     aaa:	6adf      	ldr	r7, [r3, #44]	; 0x2c
     aac:	464b      	mov	r3, r9
     aae:	6b5b      	ldr	r3, [r3, #52]	; 0x34
     ab0:	401f      	ands	r7, r3
     ab2:	464b      	mov	r3, r9
     ab4:	6b9b      	ldr	r3, [r3, #56]	; 0x38
     ab6:	401f      	ands	r7, r3
     ab8:	4d0c      	ldr	r5, [pc, #48]	; (aec <_tcc_interrupt_handler+0x54>)
     aba:	464b      	mov	r3, r9
     abc:	1d1c      	adds	r4, r3, #4
     abe:	2334      	movs	r3, #52	; 0x34
     ac0:	444b      	add	r3, r9
     ac2:	4698      	mov	r8, r3
     ac4:	682e      	ldr	r6, [r5, #0]
     ac6:	423e      	tst	r6, r7
     ac8:	d005      	beq.n	ad6 <_tcc_interrupt_handler+0x3e>
     aca:	4648      	mov	r0, r9
     acc:	6823      	ldr	r3, [r4, #0]
     ace:	4798      	blx	r3
     ad0:	464b      	mov	r3, r9
     ad2:	681b      	ldr	r3, [r3, #0]
     ad4:	62de      	str	r6, [r3, #44]	; 0x2c
     ad6:	3504      	adds	r5, #4
     ad8:	3404      	adds	r4, #4
     ada:	4544      	cmp	r4, r8
     adc:	d1f2      	bne.n	ac4 <_tcc_interrupt_handler+0x2c>
     ade:	bc0c      	pop	{r2, r3}
     ae0:	4690      	mov	r8, r2
     ae2:	4699      	mov	r9, r3
     ae4:	bdf8      	pop	{r3, r4, r5, r6, r7, pc}
     ae6:	46c0      	nop			; (mov r8, r8)
     ae8:	200001a4 	.word	0x200001a4
     aec:	00005080 	.word	0x00005080

00000af0 <TCC0_Handler>:
     af0:	b510      	push	{r4, lr}
     af2:	2000      	movs	r0, #0
     af4:	4b01      	ldr	r3, [pc, #4]	; (afc <TCC0_Handler+0xc>)
     af6:	4798      	blx	r3
     af8:	bd10      	pop	{r4, pc}
     afa:	46c0      	nop			; (mov r8, r8)
     afc:	00000a99 	.word	0x00000a99

00000b00 <TCC1_Handler>:
     b00:	b510      	push	{r4, lr}
     b02:	2001      	movs	r0, #1
     b04:	4b01      	ldr	r3, [pc, #4]	; (b0c <TCC1_Handler+0xc>)
     b06:	4798      	blx	r3
     b08:	bd10      	pop	{r4, pc}
     b0a:	46c0      	nop			; (mov r8, r8)
     b0c:	00000a99 	.word	0x00000a99

00000b10 <TCC2_Handler>:
     b10:	b510      	push	{r4, lr}
     b12:	2002      	movs	r0, #2
     b14:	4b01      	ldr	r3, [pc, #4]	; (b1c <TCC2_Handler+0xc>)
     b16:	4798      	blx	r3
     b18:	bd10      	pop	{r4, pc}
     b1a:	46c0      	nop			; (mov r8, r8)
     b1c:	00000a99 	.word	0x00000a99

00000b20 <_tc_get_inst_index>:
     b20:	b530      	push	{r4, r5, lr}
     b22:	b085      	sub	sp, #20
     b24:	aa01      	add	r2, sp, #4
     b26:	4b0b      	ldr	r3, [pc, #44]	; (b54 <_tc_get_inst_index+0x34>)
     b28:	cb32      	ldmia	r3!, {r1, r4, r5}
     b2a:	c232      	stmia	r2!, {r1, r4, r5}
     b2c:	9b01      	ldr	r3, [sp, #4]
     b2e:	4298      	cmp	r0, r3
     b30:	d00a      	beq.n	b48 <_tc_get_inst_index+0x28>
     b32:	9b02      	ldr	r3, [sp, #8]
     b34:	4298      	cmp	r0, r3
     b36:	d005      	beq.n	b44 <_tc_get_inst_index+0x24>
     b38:	2300      	movs	r3, #0
     b3a:	9a03      	ldr	r2, [sp, #12]
     b3c:	4282      	cmp	r2, r0
     b3e:	d105      	bne.n	b4c <_tc_get_inst_index+0x2c>
     b40:	3302      	adds	r3, #2
     b42:	e002      	b.n	b4a <_tc_get_inst_index+0x2a>
     b44:	2301      	movs	r3, #1
     b46:	e000      	b.n	b4a <_tc_get_inst_index+0x2a>
     b48:	2300      	movs	r3, #0
     b4a:	b2db      	uxtb	r3, r3
     b4c:	0018      	movs	r0, r3
     b4e:	b005      	add	sp, #20
     b50:	bd30      	pop	{r4, r5, pc}
     b52:	46c0      	nop			; (mov r8, r8)
     b54:	000050b0 	.word	0x000050b0

00000b58 <tc_init>:
     b58:	b5f0      	push	{r4, r5, r6, r7, lr}
     b5a:	464f      	mov	r7, r9
     b5c:	4646      	mov	r6, r8
     b5e:	b4c0      	push	{r6, r7}
     b60:	b087      	sub	sp, #28
     b62:	0004      	movs	r4, r0
     b64:	000e      	movs	r6, r1
     b66:	4690      	mov	r8, r2
     b68:	0008      	movs	r0, r1
     b6a:	4b92      	ldr	r3, [pc, #584]	; (db4 <tc_init+0x25c>)
     b6c:	4798      	blx	r3
     b6e:	4681      	mov	r9, r0
     b70:	4d91      	ldr	r5, [pc, #580]	; (db8 <tc_init+0x260>)
     b72:	0029      	movs	r1, r5
     b74:	310c      	adds	r1, #12
     b76:	2203      	movs	r2, #3
     b78:	a805      	add	r0, sp, #20
     b7a:	4f90      	ldr	r7, [pc, #576]	; (dbc <tc_init+0x264>)
     b7c:	47b8      	blx	r7
     b7e:	0029      	movs	r1, r5
     b80:	3110      	adds	r1, #16
     b82:	2206      	movs	r2, #6
     b84:	a803      	add	r0, sp, #12
     b86:	47b8      	blx	r7
     b88:	2300      	movs	r3, #0
     b8a:	60a3      	str	r3, [r4, #8]
     b8c:	60e3      	str	r3, [r4, #12]
     b8e:	6123      	str	r3, [r4, #16]
     b90:	6163      	str	r3, [r4, #20]
     b92:	7623      	strb	r3, [r4, #24]
     b94:	7663      	strb	r3, [r4, #25]
     b96:	464b      	mov	r3, r9
     b98:	009a      	lsls	r2, r3, #2
     b9a:	4b89      	ldr	r3, [pc, #548]	; (dc0 <tc_init+0x268>)
     b9c:	50d4      	str	r4, [r2, r3]
     b9e:	6026      	str	r6, [r4, #0]
     ba0:	4643      	mov	r3, r8
     ba2:	789b      	ldrb	r3, [r3, #2]
     ba4:	2b08      	cmp	r3, #8
     ba6:	d104      	bne.n	bb2 <tc_init+0x5a>
     ba8:	2017      	movs	r0, #23
     baa:	464a      	mov	r2, r9
     bac:	07d2      	lsls	r2, r2, #31
     bae:	d400      	bmi.n	bb2 <tc_init+0x5a>
     bb0:	e0fb      	b.n	daa <tc_init+0x252>
     bb2:	7123      	strb	r3, [r4, #4]
     bb4:	8833      	ldrh	r3, [r6, #0]
     bb6:	2005      	movs	r0, #5
     bb8:	07db      	lsls	r3, r3, #31
     bba:	d500      	bpl.n	bbe <tc_init+0x66>
     bbc:	e0f5      	b.n	daa <tc_init+0x252>
     bbe:	7bf3      	ldrb	r3, [r6, #15]
     bc0:	3017      	adds	r0, #23
     bc2:	06db      	lsls	r3, r3, #27
     bc4:	d500      	bpl.n	bc8 <tc_init+0x70>
     bc6:	e0f0      	b.n	daa <tc_init+0x252>
     bc8:	8833      	ldrh	r3, [r6, #0]
     bca:	079b      	lsls	r3, r3, #30
     bcc:	d500      	bpl.n	bd0 <tc_init+0x78>
     bce:	e0ec      	b.n	daa <tc_init+0x252>
     bd0:	4643      	mov	r3, r8
     bd2:	7c1b      	ldrb	r3, [r3, #16]
     bd4:	2b00      	cmp	r3, #0
     bd6:	d00c      	beq.n	bf2 <tc_init+0x9a>
     bd8:	a902      	add	r1, sp, #8
     bda:	2301      	movs	r3, #1
     bdc:	708b      	strb	r3, [r1, #2]
     bde:	2200      	movs	r2, #0
     be0:	70ca      	strb	r2, [r1, #3]
     be2:	4642      	mov	r2, r8
     be4:	7e12      	ldrb	r2, [r2, #24]
     be6:	700a      	strb	r2, [r1, #0]
     be8:	704b      	strb	r3, [r1, #1]
     bea:	4643      	mov	r3, r8
     bec:	7d18      	ldrb	r0, [r3, #20]
     bee:	4b75      	ldr	r3, [pc, #468]	; (dc4 <tc_init+0x26c>)
     bf0:	4798      	blx	r3
     bf2:	4643      	mov	r3, r8
     bf4:	7f1b      	ldrb	r3, [r3, #28]
     bf6:	2b00      	cmp	r3, #0
     bf8:	d00d      	beq.n	c16 <tc_init+0xbe>
     bfa:	a902      	add	r1, sp, #8
     bfc:	2301      	movs	r3, #1
     bfe:	708b      	strb	r3, [r1, #2]
     c00:	2200      	movs	r2, #0
     c02:	70ca      	strb	r2, [r1, #3]
     c04:	4642      	mov	r2, r8
     c06:	6a52      	ldr	r2, [r2, #36]	; 0x24
     c08:	700a      	strb	r2, [r1, #0]
     c0a:	704b      	strb	r3, [r1, #1]
     c0c:	4643      	mov	r3, r8
     c0e:	6a1b      	ldr	r3, [r3, #32]
     c10:	b2d8      	uxtb	r0, r3
     c12:	4b6c      	ldr	r3, [pc, #432]	; (dc4 <tc_init+0x26c>)
     c14:	4798      	blx	r3
     c16:	496c      	ldr	r1, [pc, #432]	; (dc8 <tc_init+0x270>)
     c18:	6a0b      	ldr	r3, [r1, #32]
     c1a:	464a      	mov	r2, r9
     c1c:	0052      	lsls	r2, r2, #1
     c1e:	a803      	add	r0, sp, #12
     c20:	5a12      	ldrh	r2, [r2, r0]
     c22:	4313      	orrs	r3, r2
     c24:	620b      	str	r3, [r1, #32]
     c26:	4643      	mov	r3, r8
     c28:	789b      	ldrb	r3, [r3, #2]
     c2a:	2b08      	cmp	r3, #8
     c2c:	d106      	bne.n	c3c <tc_init+0xe4>
     c2e:	6a0b      	ldr	r3, [r1, #32]
     c30:	464a      	mov	r2, r9
     c32:	3201      	adds	r2, #1
     c34:	0052      	lsls	r2, r2, #1
     c36:	5a12      	ldrh	r2, [r2, r0]
     c38:	4313      	orrs	r3, r2
     c3a:	620b      	str	r3, [r1, #32]
     c3c:	a901      	add	r1, sp, #4
     c3e:	4643      	mov	r3, r8
     c40:	781b      	ldrb	r3, [r3, #0]
     c42:	700b      	strb	r3, [r1, #0]
     c44:	ab05      	add	r3, sp, #20
     c46:	464a      	mov	r2, r9
     c48:	5c9d      	ldrb	r5, [r3, r2]
     c4a:	0028      	movs	r0, r5
     c4c:	4b5f      	ldr	r3, [pc, #380]	; (dcc <tc_init+0x274>)
     c4e:	4798      	blx	r3
     c50:	0028      	movs	r0, r5
     c52:	4b5f      	ldr	r3, [pc, #380]	; (dd0 <tc_init+0x278>)
     c54:	4798      	blx	r3
     c56:	4643      	mov	r3, r8
     c58:	7898      	ldrb	r0, [r3, #2]
     c5a:	799b      	ldrb	r3, [r3, #6]
     c5c:	0002      	movs	r2, r0
     c5e:	431a      	orrs	r2, r3
     c60:	4643      	mov	r3, r8
     c62:	8918      	ldrh	r0, [r3, #8]
     c64:	889b      	ldrh	r3, [r3, #4]
     c66:	4303      	orrs	r3, r0
     c68:	431a      	orrs	r2, r3
     c6a:	0010      	movs	r0, r2
     c6c:	4643      	mov	r3, r8
     c6e:	785b      	ldrb	r3, [r3, #1]
     c70:	2b00      	cmp	r3, #0
     c72:	d002      	beq.n	c7a <tc_init+0x122>
     c74:	2380      	movs	r3, #128	; 0x80
     c76:	011b      	lsls	r3, r3, #4
     c78:	4318      	orrs	r0, r3
     c7a:	6821      	ldr	r1, [r4, #0]
     c7c:	227f      	movs	r2, #127	; 0x7f
     c7e:	7bcb      	ldrb	r3, [r1, #15]
     c80:	4393      	bics	r3, r2
     c82:	d1fc      	bne.n	c7e <tc_init+0x126>
     c84:	8030      	strh	r0, [r6, #0]
     c86:	4643      	mov	r3, r8
     c88:	7b58      	ldrb	r0, [r3, #13]
     c8a:	1e43      	subs	r3, r0, #1
     c8c:	4198      	sbcs	r0, r3
     c8e:	0080      	lsls	r0, r0, #2
     c90:	4643      	mov	r3, r8
     c92:	7b9b      	ldrb	r3, [r3, #14]
     c94:	2b00      	cmp	r3, #0
     c96:	d001      	beq.n	c9c <tc_init+0x144>
     c98:	2301      	movs	r3, #1
     c9a:	4318      	orrs	r0, r3
     c9c:	6821      	ldr	r1, [r4, #0]
     c9e:	227f      	movs	r2, #127	; 0x7f
     ca0:	7bcb      	ldrb	r3, [r1, #15]
     ca2:	4393      	bics	r3, r2
     ca4:	d1fc      	bne.n	ca0 <tc_init+0x148>
     ca6:	33ff      	adds	r3, #255	; 0xff
     ca8:	7133      	strb	r3, [r6, #4]
     caa:	2800      	cmp	r0, #0
     cac:	d005      	beq.n	cba <tc_init+0x162>
     cae:	6821      	ldr	r1, [r4, #0]
     cb0:	227f      	movs	r2, #127	; 0x7f
     cb2:	7bcb      	ldrb	r3, [r1, #15]
     cb4:	4393      	bics	r3, r2
     cb6:	d1fc      	bne.n	cb2 <tc_init+0x15a>
     cb8:	7170      	strb	r0, [r6, #5]
     cba:	4643      	mov	r3, r8
     cbc:	7a98      	ldrb	r0, [r3, #10]
     cbe:	7adb      	ldrb	r3, [r3, #11]
     cc0:	2b00      	cmp	r3, #0
     cc2:	d001      	beq.n	cc8 <tc_init+0x170>
     cc4:	2310      	movs	r3, #16
     cc6:	4318      	orrs	r0, r3
     cc8:	4643      	mov	r3, r8
     cca:	7b1b      	ldrb	r3, [r3, #12]
     ccc:	2b00      	cmp	r3, #0
     cce:	d001      	beq.n	cd4 <tc_init+0x17c>
     cd0:	2320      	movs	r3, #32
     cd2:	4318      	orrs	r0, r3
     cd4:	6821      	ldr	r1, [r4, #0]
     cd6:	227f      	movs	r2, #127	; 0x7f
     cd8:	7bcb      	ldrb	r3, [r1, #15]
     cda:	4393      	bics	r3, r2
     cdc:	d1fc      	bne.n	cd8 <tc_init+0x180>
     cde:	71b0      	strb	r0, [r6, #6]
     ce0:	6822      	ldr	r2, [r4, #0]
     ce2:	217f      	movs	r1, #127	; 0x7f
     ce4:	7bd3      	ldrb	r3, [r2, #15]
     ce6:	438b      	bics	r3, r1
     ce8:	d1fc      	bne.n	ce4 <tc_init+0x18c>
     cea:	7923      	ldrb	r3, [r4, #4]
     cec:	2b04      	cmp	r3, #4
     cee:	d005      	beq.n	cfc <tc_init+0x1a4>
     cf0:	2b08      	cmp	r3, #8
     cf2:	d041      	beq.n	d78 <tc_init+0x220>
     cf4:	2017      	movs	r0, #23
     cf6:	2b00      	cmp	r3, #0
     cf8:	d157      	bne.n	daa <tc_init+0x252>
     cfa:	e024      	b.n	d46 <tc_init+0x1ee>
     cfc:	217f      	movs	r1, #127	; 0x7f
     cfe:	7bd3      	ldrb	r3, [r2, #15]
     d00:	438b      	bics	r3, r1
     d02:	d1fc      	bne.n	cfe <tc_init+0x1a6>
     d04:	3328      	adds	r3, #40	; 0x28
     d06:	4642      	mov	r2, r8
     d08:	5cd3      	ldrb	r3, [r2, r3]
     d0a:	7433      	strb	r3, [r6, #16]
     d0c:	6821      	ldr	r1, [r4, #0]
     d0e:	227f      	movs	r2, #127	; 0x7f
     d10:	7bcb      	ldrb	r3, [r1, #15]
     d12:	4393      	bics	r3, r2
     d14:	d1fc      	bne.n	d10 <tc_init+0x1b8>
     d16:	3329      	adds	r3, #41	; 0x29
     d18:	4642      	mov	r2, r8
     d1a:	5cd3      	ldrb	r3, [r2, r3]
     d1c:	7533      	strb	r3, [r6, #20]
     d1e:	6821      	ldr	r1, [r4, #0]
     d20:	227f      	movs	r2, #127	; 0x7f
     d22:	7bcb      	ldrb	r3, [r1, #15]
     d24:	4393      	bics	r3, r2
     d26:	d1fc      	bne.n	d22 <tc_init+0x1ca>
     d28:	332a      	adds	r3, #42	; 0x2a
     d2a:	4642      	mov	r2, r8
     d2c:	5cd3      	ldrb	r3, [r2, r3]
     d2e:	7633      	strb	r3, [r6, #24]
     d30:	6821      	ldr	r1, [r4, #0]
     d32:	227f      	movs	r2, #127	; 0x7f
     d34:	7bcb      	ldrb	r3, [r1, #15]
     d36:	4393      	bics	r3, r2
     d38:	d1fc      	bne.n	d34 <tc_init+0x1dc>
     d3a:	332b      	adds	r3, #43	; 0x2b
     d3c:	4642      	mov	r2, r8
     d3e:	5cd3      	ldrb	r3, [r2, r3]
     d40:	7673      	strb	r3, [r6, #25]
     d42:	2000      	movs	r0, #0
     d44:	e031      	b.n	daa <tc_init+0x252>
     d46:	217f      	movs	r1, #127	; 0x7f
     d48:	7bd3      	ldrb	r3, [r2, #15]
     d4a:	438b      	bics	r3, r1
     d4c:	d1fc      	bne.n	d48 <tc_init+0x1f0>
     d4e:	4643      	mov	r3, r8
     d50:	8d1b      	ldrh	r3, [r3, #40]	; 0x28
     d52:	8233      	strh	r3, [r6, #16]
     d54:	6821      	ldr	r1, [r4, #0]
     d56:	227f      	movs	r2, #127	; 0x7f
     d58:	7bcb      	ldrb	r3, [r1, #15]
     d5a:	4393      	bics	r3, r2
     d5c:	d1fc      	bne.n	d58 <tc_init+0x200>
     d5e:	4643      	mov	r3, r8
     d60:	8d5b      	ldrh	r3, [r3, #42]	; 0x2a
     d62:	8333      	strh	r3, [r6, #24]
     d64:	6821      	ldr	r1, [r4, #0]
     d66:	227f      	movs	r2, #127	; 0x7f
     d68:	7bcb      	ldrb	r3, [r1, #15]
     d6a:	4393      	bics	r3, r2
     d6c:	d1fc      	bne.n	d68 <tc_init+0x210>
     d6e:	4643      	mov	r3, r8
     d70:	8d9b      	ldrh	r3, [r3, #44]	; 0x2c
     d72:	8373      	strh	r3, [r6, #26]
     d74:	2000      	movs	r0, #0
     d76:	e018      	b.n	daa <tc_init+0x252>
     d78:	217f      	movs	r1, #127	; 0x7f
     d7a:	7bd3      	ldrb	r3, [r2, #15]
     d7c:	438b      	bics	r3, r1
     d7e:	d1fc      	bne.n	d7a <tc_init+0x222>
     d80:	4643      	mov	r3, r8
     d82:	6a9b      	ldr	r3, [r3, #40]	; 0x28
     d84:	6133      	str	r3, [r6, #16]
     d86:	6821      	ldr	r1, [r4, #0]
     d88:	227f      	movs	r2, #127	; 0x7f
     d8a:	7bcb      	ldrb	r3, [r1, #15]
     d8c:	4393      	bics	r3, r2
     d8e:	d1fc      	bne.n	d8a <tc_init+0x232>
     d90:	4643      	mov	r3, r8
     d92:	6adb      	ldr	r3, [r3, #44]	; 0x2c
     d94:	61b3      	str	r3, [r6, #24]
     d96:	6821      	ldr	r1, [r4, #0]
     d98:	227f      	movs	r2, #127	; 0x7f
     d9a:	7bcb      	ldrb	r3, [r1, #15]
     d9c:	4393      	bics	r3, r2
     d9e:	d1fc      	bne.n	d9a <tc_init+0x242>
     da0:	4643      	mov	r3, r8
     da2:	6b1b      	ldr	r3, [r3, #48]	; 0x30
     da4:	61f3      	str	r3, [r6, #28]
     da6:	2000      	movs	r0, #0
     da8:	e7ff      	b.n	daa <tc_init+0x252>
     daa:	b007      	add	sp, #28
     dac:	bc0c      	pop	{r2, r3}
     dae:	4690      	mov	r8, r2
     db0:	4699      	mov	r9, r3
     db2:	bdf0      	pop	{r4, r5, r6, r7, pc}
     db4:	00000b21 	.word	0x00000b21
     db8:	000050b0 	.word	0x000050b0
     dbc:	00003f29 	.word	0x00003f29
     dc0:	200001bc 	.word	0x200001bc
     dc4:	0000201d 	.word	0x0000201d
     dc8:	40000400 	.word	0x40000400
     dcc:	00001f25 	.word	0x00001f25
     dd0:	00001e99 	.word	0x00001e99

00000dd4 <_read>:
     dd4:	b5f0      	push	{r4, r5, r6, r7, lr}
     dd6:	4647      	mov	r7, r8
     dd8:	b480      	push	{r7}
     dda:	000c      	movs	r4, r1
     ddc:	4690      	mov	r8, r2
     dde:	2800      	cmp	r0, #0
     de0:	d10d      	bne.n	dfe <_read+0x2a>
     de2:	2a00      	cmp	r2, #0
     de4:	dd0e      	ble.n	e04 <_read+0x30>
     de6:	188f      	adds	r7, r1, r2
     de8:	4e08      	ldr	r6, [pc, #32]	; (e0c <_read+0x38>)
     dea:	4d09      	ldr	r5, [pc, #36]	; (e10 <_read+0x3c>)
     dec:	6830      	ldr	r0, [r6, #0]
     dee:	0021      	movs	r1, r4
     df0:	682b      	ldr	r3, [r5, #0]
     df2:	4798      	blx	r3
     df4:	3401      	adds	r4, #1
     df6:	42a7      	cmp	r7, r4
     df8:	d1f8      	bne.n	dec <_read+0x18>
     dfa:	4640      	mov	r0, r8
     dfc:	e003      	b.n	e06 <_read+0x32>
     dfe:	2001      	movs	r0, #1
     e00:	4240      	negs	r0, r0
     e02:	e000      	b.n	e06 <_read+0x32>
     e04:	2000      	movs	r0, #0
     e06:	bc04      	pop	{r2}
     e08:	4690      	mov	r8, r2
     e0a:	bdf0      	pop	{r4, r5, r6, r7, pc}
     e0c:	200001b8 	.word	0x200001b8
     e10:	200001b0 	.word	0x200001b0

00000e14 <_write>:
     e14:	b5f0      	push	{r4, r5, r6, r7, lr}
     e16:	4647      	mov	r7, r8
     e18:	b480      	push	{r7}
     e1a:	000e      	movs	r6, r1
     e1c:	0015      	movs	r5, r2
     e1e:	3801      	subs	r0, #1
     e20:	2802      	cmp	r0, #2
     e22:	d811      	bhi.n	e48 <_write+0x34>
     e24:	2a00      	cmp	r2, #0
     e26:	d012      	beq.n	e4e <_write+0x3a>
     e28:	2400      	movs	r4, #0
     e2a:	4b0c      	ldr	r3, [pc, #48]	; (e5c <_write+0x48>)
     e2c:	4698      	mov	r8, r3
     e2e:	4f0c      	ldr	r7, [pc, #48]	; (e60 <_write+0x4c>)
     e30:	4643      	mov	r3, r8
     e32:	6818      	ldr	r0, [r3, #0]
     e34:	5d31      	ldrb	r1, [r6, r4]
     e36:	683b      	ldr	r3, [r7, #0]
     e38:	4798      	blx	r3
     e3a:	2800      	cmp	r0, #0
     e3c:	db09      	blt.n	e52 <_write+0x3e>
     e3e:	3401      	adds	r4, #1
     e40:	42a5      	cmp	r5, r4
     e42:	d1f5      	bne.n	e30 <_write+0x1c>
     e44:	0020      	movs	r0, r4
     e46:	e006      	b.n	e56 <_write+0x42>
     e48:	2001      	movs	r0, #1
     e4a:	4240      	negs	r0, r0
     e4c:	e003      	b.n	e56 <_write+0x42>
     e4e:	2000      	movs	r0, #0
     e50:	e001      	b.n	e56 <_write+0x42>
     e52:	2001      	movs	r0, #1
     e54:	4240      	negs	r0, r0
     e56:	bc04      	pop	{r2}
     e58:	4690      	mov	r8, r2
     e5a:	bdf0      	pop	{r4, r5, r6, r7, pc}
     e5c:	200001b8 	.word	0x200001b8
     e60:	200001b4 	.word	0x200001b4

00000e64 <_tc_interrupt_handler>:
     e64:	b570      	push	{r4, r5, r6, lr}
     e66:	0080      	lsls	r0, r0, #2
     e68:	4b14      	ldr	r3, [pc, #80]	; (ebc <_tc_interrupt_handler+0x58>)
     e6a:	58c5      	ldr	r5, [r0, r3]
     e6c:	682b      	ldr	r3, [r5, #0]
     e6e:	7b9c      	ldrb	r4, [r3, #14]
     e70:	7e2b      	ldrb	r3, [r5, #24]
     e72:	401c      	ands	r4, r3
     e74:	7e6b      	ldrb	r3, [r5, #25]
     e76:	401c      	ands	r4, r3
     e78:	07e3      	lsls	r3, r4, #31
     e7a:	d505      	bpl.n	e88 <_tc_interrupt_handler+0x24>
     e7c:	0028      	movs	r0, r5
     e7e:	68ab      	ldr	r3, [r5, #8]
     e80:	4798      	blx	r3
     e82:	2301      	movs	r3, #1
     e84:	682a      	ldr	r2, [r5, #0]
     e86:	7393      	strb	r3, [r2, #14]
     e88:	07a3      	lsls	r3, r4, #30
     e8a:	d505      	bpl.n	e98 <_tc_interrupt_handler+0x34>
     e8c:	0028      	movs	r0, r5
     e8e:	68eb      	ldr	r3, [r5, #12]
     e90:	4798      	blx	r3
     e92:	2302      	movs	r3, #2
     e94:	682a      	ldr	r2, [r5, #0]
     e96:	7393      	strb	r3, [r2, #14]
     e98:	06e3      	lsls	r3, r4, #27
     e9a:	d505      	bpl.n	ea8 <_tc_interrupt_handler+0x44>
     e9c:	0028      	movs	r0, r5
     e9e:	692b      	ldr	r3, [r5, #16]
     ea0:	4798      	blx	r3
     ea2:	2310      	movs	r3, #16
     ea4:	682a      	ldr	r2, [r5, #0]
     ea6:	7393      	strb	r3, [r2, #14]
     ea8:	06a3      	lsls	r3, r4, #26
     eaa:	d505      	bpl.n	eb8 <_tc_interrupt_handler+0x54>
     eac:	0028      	movs	r0, r5
     eae:	696b      	ldr	r3, [r5, #20]
     eb0:	4798      	blx	r3
     eb2:	682b      	ldr	r3, [r5, #0]
     eb4:	2220      	movs	r2, #32
     eb6:	739a      	strb	r2, [r3, #14]
     eb8:	bd70      	pop	{r4, r5, r6, pc}
     eba:	46c0      	nop			; (mov r8, r8)
     ebc:	200001bc 	.word	0x200001bc

00000ec0 <TC3_Handler>:
     ec0:	b510      	push	{r4, lr}
     ec2:	2000      	movs	r0, #0
     ec4:	4b01      	ldr	r3, [pc, #4]	; (ecc <TC3_Handler+0xc>)
     ec6:	4798      	blx	r3
     ec8:	bd10      	pop	{r4, pc}
     eca:	46c0      	nop			; (mov r8, r8)
     ecc:	00000e65 	.word	0x00000e65

00000ed0 <TC4_Handler>:
     ed0:	b510      	push	{r4, lr}
     ed2:	2001      	movs	r0, #1
     ed4:	4b01      	ldr	r3, [pc, #4]	; (edc <TC4_Handler+0xc>)
     ed6:	4798      	blx	r3
     ed8:	bd10      	pop	{r4, pc}
     eda:	46c0      	nop			; (mov r8, r8)
     edc:	00000e65 	.word	0x00000e65

00000ee0 <TC5_Handler>:
     ee0:	b510      	push	{r4, lr}
     ee2:	2002      	movs	r0, #2
     ee4:	4b01      	ldr	r3, [pc, #4]	; (eec <TC5_Handler+0xc>)
     ee6:	4798      	blx	r3
     ee8:	bd10      	pop	{r4, pc}
     eea:	46c0      	nop			; (mov r8, r8)
     eec:	00000e65 	.word	0x00000e65

00000ef0 <usart_init>:
     ef0:	b5f0      	push	{r4, r5, r6, r7, lr}
     ef2:	465f      	mov	r7, fp
     ef4:	4656      	mov	r6, sl
     ef6:	464d      	mov	r5, r9
     ef8:	4644      	mov	r4, r8
     efa:	b4f0      	push	{r4, r5, r6, r7}
     efc:	b091      	sub	sp, #68	; 0x44
     efe:	0005      	movs	r5, r0
     f00:	000c      	movs	r4, r1
     f02:	0016      	movs	r6, r2
     f04:	6029      	str	r1, [r5, #0]
     f06:	0008      	movs	r0, r1
     f08:	4bb9      	ldr	r3, [pc, #740]	; (11f0 <usart_init+0x300>)
     f0a:	4798      	blx	r3
     f0c:	6822      	ldr	r2, [r4, #0]
     f0e:	2305      	movs	r3, #5
     f10:	07d2      	lsls	r2, r2, #31
     f12:	d500      	bpl.n	f16 <usart_init+0x26>
     f14:	e164      	b.n	11e0 <usart_init+0x2f0>
     f16:	6822      	ldr	r2, [r4, #0]
     f18:	3317      	adds	r3, #23
     f1a:	0792      	lsls	r2, r2, #30
     f1c:	d500      	bpl.n	f20 <usart_init+0x30>
     f1e:	e15f      	b.n	11e0 <usart_init+0x2f0>
     f20:	49b4      	ldr	r1, [pc, #720]	; (11f4 <usart_init+0x304>)
     f22:	6a0a      	ldr	r2, [r1, #32]
     f24:	1c87      	adds	r7, r0, #2
     f26:	3b1b      	subs	r3, #27
     f28:	40bb      	lsls	r3, r7
     f2a:	4313      	orrs	r3, r2
     f2c:	620b      	str	r3, [r1, #32]
     f2e:	a90f      	add	r1, sp, #60	; 0x3c
     f30:	272d      	movs	r7, #45	; 0x2d
     f32:	5df3      	ldrb	r3, [r6, r7]
     f34:	700b      	strb	r3, [r1, #0]
     f36:	3014      	adds	r0, #20
     f38:	b2c3      	uxtb	r3, r0
     f3a:	9302      	str	r3, [sp, #8]
     f3c:	0018      	movs	r0, r3
     f3e:	4bae      	ldr	r3, [pc, #696]	; (11f8 <usart_init+0x308>)
     f40:	4798      	blx	r3
     f42:	9802      	ldr	r0, [sp, #8]
     f44:	4bad      	ldr	r3, [pc, #692]	; (11fc <usart_init+0x30c>)
     f46:	4798      	blx	r3
     f48:	5df0      	ldrb	r0, [r6, r7]
     f4a:	2100      	movs	r1, #0
     f4c:	4bac      	ldr	r3, [pc, #688]	; (1200 <usart_init+0x310>)
     f4e:	4798      	blx	r3
     f50:	7af3      	ldrb	r3, [r6, #11]
     f52:	716b      	strb	r3, [r5, #5]
     f54:	2324      	movs	r3, #36	; 0x24
     f56:	5cf3      	ldrb	r3, [r6, r3]
     f58:	71ab      	strb	r3, [r5, #6]
     f5a:	2325      	movs	r3, #37	; 0x25
     f5c:	5cf3      	ldrb	r3, [r6, r3]
     f5e:	71eb      	strb	r3, [r5, #7]
     f60:	7ef3      	ldrb	r3, [r6, #27]
     f62:	722b      	strb	r3, [r5, #8]
     f64:	7f33      	ldrb	r3, [r6, #28]
     f66:	726b      	strb	r3, [r5, #9]
     f68:	682b      	ldr	r3, [r5, #0]
     f6a:	4699      	mov	r9, r3
     f6c:	0018      	movs	r0, r3
     f6e:	4ba0      	ldr	r3, [pc, #640]	; (11f0 <usart_init+0x300>)
     f70:	4798      	blx	r3
     f72:	3014      	adds	r0, #20
     f74:	2200      	movs	r2, #0
     f76:	230e      	movs	r3, #14
     f78:	a906      	add	r1, sp, #24
     f7a:	468c      	mov	ip, r1
     f7c:	4463      	add	r3, ip
     f7e:	801a      	strh	r2, [r3, #0]
     f80:	8a32      	ldrh	r2, [r6, #16]
     f82:	9202      	str	r2, [sp, #8]
     f84:	2380      	movs	r3, #128	; 0x80
     f86:	01db      	lsls	r3, r3, #7
     f88:	429a      	cmp	r2, r3
     f8a:	d01a      	beq.n	fc2 <usart_init+0xd2>
     f8c:	d804      	bhi.n	f98 <usart_init+0xa8>
     f8e:	2380      	movs	r3, #128	; 0x80
     f90:	019b      	lsls	r3, r3, #6
     f92:	429a      	cmp	r2, r3
     f94:	d00b      	beq.n	fae <usart_init+0xbe>
     f96:	e104      	b.n	11a2 <usart_init+0x2b2>
     f98:	23c0      	movs	r3, #192	; 0xc0
     f9a:	01db      	lsls	r3, r3, #7
     f9c:	9a02      	ldr	r2, [sp, #8]
     f9e:	429a      	cmp	r2, r3
     fa0:	d00a      	beq.n	fb8 <usart_init+0xc8>
     fa2:	2380      	movs	r3, #128	; 0x80
     fa4:	021b      	lsls	r3, r3, #8
     fa6:	429a      	cmp	r2, r3
     fa8:	d100      	bne.n	fac <usart_init+0xbc>
     faa:	e0ff      	b.n	11ac <usart_init+0x2bc>
     fac:	e0f9      	b.n	11a2 <usart_init+0x2b2>
     fae:	2310      	movs	r3, #16
     fb0:	9306      	str	r3, [sp, #24]
     fb2:	3b0f      	subs	r3, #15
     fb4:	9307      	str	r3, [sp, #28]
     fb6:	e0fd      	b.n	11b4 <usart_init+0x2c4>
     fb8:	2308      	movs	r3, #8
     fba:	9306      	str	r3, [sp, #24]
     fbc:	3b07      	subs	r3, #7
     fbe:	9307      	str	r3, [sp, #28]
     fc0:	e0f8      	b.n	11b4 <usart_init+0x2c4>
     fc2:	6833      	ldr	r3, [r6, #0]
     fc4:	9304      	str	r3, [sp, #16]
     fc6:	68f3      	ldr	r3, [r6, #12]
     fc8:	469b      	mov	fp, r3
     fca:	6973      	ldr	r3, [r6, #20]
     fcc:	9303      	str	r3, [sp, #12]
     fce:	7e33      	ldrb	r3, [r6, #24]
     fd0:	4698      	mov	r8, r3
     fd2:	2326      	movs	r3, #38	; 0x26
     fd4:	5cf3      	ldrb	r3, [r6, r3]
     fd6:	9305      	str	r3, [sp, #20]
     fd8:	6873      	ldr	r3, [r6, #4]
     fda:	469a      	mov	sl, r3
     fdc:	2b00      	cmp	r3, #0
     fde:	d015      	beq.n	100c <usart_init+0x11c>
     fe0:	2380      	movs	r3, #128	; 0x80
     fe2:	055b      	lsls	r3, r3, #21
     fe4:	459a      	cmp	sl, r3
     fe6:	d136      	bne.n	1056 <usart_init+0x166>
     fe8:	2327      	movs	r3, #39	; 0x27
     fea:	5cf3      	ldrb	r3, [r6, r3]
     fec:	2b00      	cmp	r3, #0
     fee:	d136      	bne.n	105e <usart_init+0x16e>
     ff0:	6a33      	ldr	r3, [r6, #32]
     ff2:	001f      	movs	r7, r3
     ff4:	b2c0      	uxtb	r0, r0
     ff6:	4b83      	ldr	r3, [pc, #524]	; (1204 <usart_init+0x314>)
     ff8:	4798      	blx	r3
     ffa:	0001      	movs	r1, r0
     ffc:	220e      	movs	r2, #14
     ffe:	ab06      	add	r3, sp, #24
    1000:	469c      	mov	ip, r3
    1002:	4462      	add	r2, ip
    1004:	0038      	movs	r0, r7
    1006:	4b80      	ldr	r3, [pc, #512]	; (1208 <usart_init+0x318>)
    1008:	4798      	blx	r3
    100a:	e025      	b.n	1058 <usart_init+0x168>
    100c:	2308      	movs	r3, #8
    100e:	9306      	str	r3, [sp, #24]
    1010:	2300      	movs	r3, #0
    1012:	9307      	str	r3, [sp, #28]
    1014:	2327      	movs	r3, #39	; 0x27
    1016:	5cf3      	ldrb	r3, [r6, r3]
    1018:	2b00      	cmp	r3, #0
    101a:	d00b      	beq.n	1034 <usart_init+0x144>
    101c:	9b06      	ldr	r3, [sp, #24]
    101e:	9300      	str	r3, [sp, #0]
    1020:	9b07      	ldr	r3, [sp, #28]
    1022:	220e      	movs	r2, #14
    1024:	a906      	add	r1, sp, #24
    1026:	468c      	mov	ip, r1
    1028:	4462      	add	r2, ip
    102a:	6ab1      	ldr	r1, [r6, #40]	; 0x28
    102c:	6a30      	ldr	r0, [r6, #32]
    102e:	4f77      	ldr	r7, [pc, #476]	; (120c <usart_init+0x31c>)
    1030:	47b8      	blx	r7
    1032:	e011      	b.n	1058 <usart_init+0x168>
    1034:	6a33      	ldr	r3, [r6, #32]
    1036:	001f      	movs	r7, r3
    1038:	b2c0      	uxtb	r0, r0
    103a:	4b72      	ldr	r3, [pc, #456]	; (1204 <usart_init+0x314>)
    103c:	4798      	blx	r3
    103e:	0001      	movs	r1, r0
    1040:	9b06      	ldr	r3, [sp, #24]
    1042:	9300      	str	r3, [sp, #0]
    1044:	9b07      	ldr	r3, [sp, #28]
    1046:	220e      	movs	r2, #14
    1048:	a806      	add	r0, sp, #24
    104a:	4684      	mov	ip, r0
    104c:	4462      	add	r2, ip
    104e:	0038      	movs	r0, r7
    1050:	4f6e      	ldr	r7, [pc, #440]	; (120c <usart_init+0x31c>)
    1052:	47b8      	blx	r7
    1054:	e000      	b.n	1058 <usart_init+0x168>
    1056:	2000      	movs	r0, #0
    1058:	1e03      	subs	r3, r0, #0
    105a:	d000      	beq.n	105e <usart_init+0x16e>
    105c:	e0c0      	b.n	11e0 <usart_init+0x2f0>
    105e:	7e73      	ldrb	r3, [r6, #25]
    1060:	2b00      	cmp	r3, #0
    1062:	d002      	beq.n	106a <usart_init+0x17a>
    1064:	7eb3      	ldrb	r3, [r6, #26]
    1066:	464a      	mov	r2, r9
    1068:	7393      	strb	r3, [r2, #14]
    106a:	682a      	ldr	r2, [r5, #0]
    106c:	9f02      	ldr	r7, [sp, #8]
    106e:	69d3      	ldr	r3, [r2, #28]
    1070:	2b00      	cmp	r3, #0
    1072:	d1fc      	bne.n	106e <usart_init+0x17e>
    1074:	330e      	adds	r3, #14
    1076:	aa06      	add	r2, sp, #24
    1078:	4694      	mov	ip, r2
    107a:	4463      	add	r3, ip
    107c:	881b      	ldrh	r3, [r3, #0]
    107e:	464a      	mov	r2, r9
    1080:	8193      	strh	r3, [r2, #12]
    1082:	9b04      	ldr	r3, [sp, #16]
    1084:	465a      	mov	r2, fp
    1086:	4313      	orrs	r3, r2
    1088:	9a03      	ldr	r2, [sp, #12]
    108a:	4313      	orrs	r3, r2
    108c:	4652      	mov	r2, sl
    108e:	4313      	orrs	r3, r2
    1090:	433b      	orrs	r3, r7
    1092:	4642      	mov	r2, r8
    1094:	0212      	lsls	r2, r2, #8
    1096:	4313      	orrs	r3, r2
    1098:	9a05      	ldr	r2, [sp, #20]
    109a:	0757      	lsls	r7, r2, #29
    109c:	431f      	orrs	r7, r3
    109e:	2327      	movs	r3, #39	; 0x27
    10a0:	5cf3      	ldrb	r3, [r6, r3]
    10a2:	2b00      	cmp	r3, #0
    10a4:	d101      	bne.n	10aa <usart_init+0x1ba>
    10a6:	3304      	adds	r3, #4
    10a8:	431f      	orrs	r7, r3
    10aa:	7e71      	ldrb	r1, [r6, #25]
    10ac:	0289      	lsls	r1, r1, #10
    10ae:	7f33      	ldrb	r3, [r6, #28]
    10b0:	025b      	lsls	r3, r3, #9
    10b2:	4319      	orrs	r1, r3
    10b4:	7f73      	ldrb	r3, [r6, #29]
    10b6:	021b      	lsls	r3, r3, #8
    10b8:	4319      	orrs	r1, r3
    10ba:	2324      	movs	r3, #36	; 0x24
    10bc:	5cf3      	ldrb	r3, [r6, r3]
    10be:	045b      	lsls	r3, r3, #17
    10c0:	4319      	orrs	r1, r3
    10c2:	2325      	movs	r3, #37	; 0x25
    10c4:	5cf2      	ldrb	r2, [r6, r3]
    10c6:	0412      	lsls	r2, r2, #16
    10c8:	4311      	orrs	r1, r2
    10ca:	7af3      	ldrb	r3, [r6, #11]
    10cc:	4319      	orrs	r1, r3
    10ce:	8933      	ldrh	r3, [r6, #8]
    10d0:	2bff      	cmp	r3, #255	; 0xff
    10d2:	d004      	beq.n	10de <usart_init+0x1ee>
    10d4:	2280      	movs	r2, #128	; 0x80
    10d6:	0452      	lsls	r2, r2, #17
    10d8:	4317      	orrs	r7, r2
    10da:	4319      	orrs	r1, r3
    10dc:	e005      	b.n	10ea <usart_init+0x1fa>
    10de:	7ef3      	ldrb	r3, [r6, #27]
    10e0:	2b00      	cmp	r3, #0
    10e2:	d002      	beq.n	10ea <usart_init+0x1fa>
    10e4:	2380      	movs	r3, #128	; 0x80
    10e6:	04db      	lsls	r3, r3, #19
    10e8:	431f      	orrs	r7, r3
    10ea:	232c      	movs	r3, #44	; 0x2c
    10ec:	5cf3      	ldrb	r3, [r6, r3]
    10ee:	2b00      	cmp	r3, #0
    10f0:	d103      	bne.n	10fa <usart_init+0x20a>
    10f2:	4b47      	ldr	r3, [pc, #284]	; (1210 <usart_init+0x320>)
    10f4:	789b      	ldrb	r3, [r3, #2]
    10f6:	079b      	lsls	r3, r3, #30
    10f8:	d501      	bpl.n	10fe <usart_init+0x20e>
    10fa:	2380      	movs	r3, #128	; 0x80
    10fc:	431f      	orrs	r7, r3
    10fe:	682a      	ldr	r2, [r5, #0]
    1100:	69d3      	ldr	r3, [r2, #28]
    1102:	2b00      	cmp	r3, #0
    1104:	d1fc      	bne.n	1100 <usart_init+0x210>
    1106:	464b      	mov	r3, r9
    1108:	6059      	str	r1, [r3, #4]
    110a:	682a      	ldr	r2, [r5, #0]
    110c:	69d3      	ldr	r3, [r2, #28]
    110e:	2b00      	cmp	r3, #0
    1110:	d1fc      	bne.n	110c <usart_init+0x21c>
    1112:	464b      	mov	r3, r9
    1114:	601f      	str	r7, [r3, #0]
    1116:	ab0e      	add	r3, sp, #56	; 0x38
    1118:	2280      	movs	r2, #128	; 0x80
    111a:	701a      	strb	r2, [r3, #0]
    111c:	2200      	movs	r2, #0
    111e:	705a      	strb	r2, [r3, #1]
    1120:	70da      	strb	r2, [r3, #3]
    1122:	709a      	strb	r2, [r3, #2]
    1124:	6b33      	ldr	r3, [r6, #48]	; 0x30
    1126:	930a      	str	r3, [sp, #40]	; 0x28
    1128:	6b73      	ldr	r3, [r6, #52]	; 0x34
    112a:	930b      	str	r3, [sp, #44]	; 0x2c
    112c:	6bb3      	ldr	r3, [r6, #56]	; 0x38
    112e:	930c      	str	r3, [sp, #48]	; 0x30
    1130:	6bf3      	ldr	r3, [r6, #60]	; 0x3c
    1132:	9302      	str	r3, [sp, #8]
    1134:	930d      	str	r3, [sp, #52]	; 0x34
    1136:	2700      	movs	r7, #0
    1138:	ae0e      	add	r6, sp, #56	; 0x38
    113a:	b2f9      	uxtb	r1, r7
    113c:	00bb      	lsls	r3, r7, #2
    113e:	aa0a      	add	r2, sp, #40	; 0x28
    1140:	5898      	ldr	r0, [r3, r2]
    1142:	2800      	cmp	r0, #0
    1144:	d102      	bne.n	114c <usart_init+0x25c>
    1146:	0020      	movs	r0, r4
    1148:	4b32      	ldr	r3, [pc, #200]	; (1214 <usart_init+0x324>)
    114a:	4798      	blx	r3
    114c:	1c43      	adds	r3, r0, #1
    114e:	d005      	beq.n	115c <usart_init+0x26c>
    1150:	7030      	strb	r0, [r6, #0]
    1152:	0c00      	lsrs	r0, r0, #16
    1154:	b2c0      	uxtb	r0, r0
    1156:	0031      	movs	r1, r6
    1158:	4b2f      	ldr	r3, [pc, #188]	; (1218 <usart_init+0x328>)
    115a:	4798      	blx	r3
    115c:	3701      	adds	r7, #1
    115e:	2f04      	cmp	r7, #4
    1160:	d1eb      	bne.n	113a <usart_init+0x24a>
    1162:	2300      	movs	r3, #0
    1164:	60eb      	str	r3, [r5, #12]
    1166:	612b      	str	r3, [r5, #16]
    1168:	616b      	str	r3, [r5, #20]
    116a:	61ab      	str	r3, [r5, #24]
    116c:	61eb      	str	r3, [r5, #28]
    116e:	622b      	str	r3, [r5, #32]
    1170:	62ab      	str	r3, [r5, #40]	; 0x28
    1172:	626b      	str	r3, [r5, #36]	; 0x24
    1174:	2200      	movs	r2, #0
    1176:	85eb      	strh	r3, [r5, #46]	; 0x2e
    1178:	85ab      	strh	r3, [r5, #44]	; 0x2c
    117a:	3330      	adds	r3, #48	; 0x30
    117c:	54ea      	strb	r2, [r5, r3]
    117e:	3301      	adds	r3, #1
    1180:	54ea      	strb	r2, [r5, r3]
    1182:	3301      	adds	r3, #1
    1184:	54ea      	strb	r2, [r5, r3]
    1186:	3301      	adds	r3, #1
    1188:	54ea      	strb	r2, [r5, r3]
    118a:	6828      	ldr	r0, [r5, #0]
    118c:	4b18      	ldr	r3, [pc, #96]	; (11f0 <usart_init+0x300>)
    118e:	4798      	blx	r3
    1190:	0004      	movs	r4, r0
    1192:	4922      	ldr	r1, [pc, #136]	; (121c <usart_init+0x32c>)
    1194:	4b22      	ldr	r3, [pc, #136]	; (1220 <usart_init+0x330>)
    1196:	4798      	blx	r3
    1198:	00a4      	lsls	r4, r4, #2
    119a:	4b22      	ldr	r3, [pc, #136]	; (1224 <usart_init+0x334>)
    119c:	50e5      	str	r5, [r4, r3]
    119e:	2300      	movs	r3, #0
    11a0:	e01e      	b.n	11e0 <usart_init+0x2f0>
    11a2:	2310      	movs	r3, #16
    11a4:	9306      	str	r3, [sp, #24]
    11a6:	2300      	movs	r3, #0
    11a8:	9307      	str	r3, [sp, #28]
    11aa:	e003      	b.n	11b4 <usart_init+0x2c4>
    11ac:	2303      	movs	r3, #3
    11ae:	9306      	str	r3, [sp, #24]
    11b0:	2300      	movs	r3, #0
    11b2:	9307      	str	r3, [sp, #28]
    11b4:	6833      	ldr	r3, [r6, #0]
    11b6:	9304      	str	r3, [sp, #16]
    11b8:	68f3      	ldr	r3, [r6, #12]
    11ba:	469b      	mov	fp, r3
    11bc:	6973      	ldr	r3, [r6, #20]
    11be:	9303      	str	r3, [sp, #12]
    11c0:	7e33      	ldrb	r3, [r6, #24]
    11c2:	4698      	mov	r8, r3
    11c4:	2326      	movs	r3, #38	; 0x26
    11c6:	5cf3      	ldrb	r3, [r6, r3]
    11c8:	9305      	str	r3, [sp, #20]
    11ca:	6873      	ldr	r3, [r6, #4]
    11cc:	469a      	mov	sl, r3
    11ce:	2b00      	cmp	r3, #0
    11d0:	d100      	bne.n	11d4 <usart_init+0x2e4>
    11d2:	e71f      	b.n	1014 <usart_init+0x124>
    11d4:	2380      	movs	r3, #128	; 0x80
    11d6:	055b      	lsls	r3, r3, #21
    11d8:	459a      	cmp	sl, r3
    11da:	d100      	bne.n	11de <usart_init+0x2ee>
    11dc:	e704      	b.n	fe8 <usart_init+0xf8>
    11de:	e73e      	b.n	105e <usart_init+0x16e>
    11e0:	0018      	movs	r0, r3
    11e2:	b011      	add	sp, #68	; 0x44
    11e4:	bc3c      	pop	{r2, r3, r4, r5}
    11e6:	4690      	mov	r8, r2
    11e8:	4699      	mov	r9, r3
    11ea:	46a2      	mov	sl, r4
    11ec:	46ab      	mov	fp, r5
    11ee:	bdf0      	pop	{r4, r5, r6, r7, pc}
    11f0:	000018e9 	.word	0x000018e9
    11f4:	40000400 	.word	0x40000400
    11f8:	00001f25 	.word	0x00001f25
    11fc:	00001e99 	.word	0x00001e99
    1200:	00001715 	.word	0x00001715
    1204:	00001f41 	.word	0x00001f41
    1208:	00001525 	.word	0x00001525
    120c:	0000154d 	.word	0x0000154d
    1210:	41002000 	.word	0x41002000
    1214:	00001761 	.word	0x00001761
    1218:	0000201d 	.word	0x0000201d
    121c:	000012c5 	.word	0x000012c5
    1220:	00001929 	.word	0x00001929
    1224:	200001cc 	.word	0x200001cc

00001228 <usart_write_wait>:
    1228:	79c2      	ldrb	r2, [r0, #7]
    122a:	231c      	movs	r3, #28
    122c:	2a00      	cmp	r2, #0
    122e:	d00e      	beq.n	124e <usart_write_wait+0x26>
    1230:	8dc2      	ldrh	r2, [r0, #46]	; 0x2e
    1232:	b292      	uxth	r2, r2
    1234:	3b17      	subs	r3, #23
    1236:	2a00      	cmp	r2, #0
    1238:	d109      	bne.n	124e <usart_write_wait+0x26>
    123a:	6803      	ldr	r3, [r0, #0]
    123c:	69da      	ldr	r2, [r3, #28]
    123e:	2a00      	cmp	r2, #0
    1240:	d1fc      	bne.n	123c <usart_write_wait+0x14>
    1242:	8519      	strh	r1, [r3, #40]	; 0x28
    1244:	2102      	movs	r1, #2
    1246:	7e1a      	ldrb	r2, [r3, #24]
    1248:	420a      	tst	r2, r1
    124a:	d0fc      	beq.n	1246 <usart_write_wait+0x1e>
    124c:	2300      	movs	r3, #0
    124e:	0018      	movs	r0, r3
    1250:	4770      	bx	lr
    1252:	46c0      	nop			; (mov r8, r8)

00001254 <usart_read_wait>:
    1254:	7982      	ldrb	r2, [r0, #6]
    1256:	231c      	movs	r3, #28
    1258:	2a00      	cmp	r2, #0
    125a:	d030      	beq.n	12be <usart_read_wait+0x6a>
    125c:	8d82      	ldrh	r2, [r0, #44]	; 0x2c
    125e:	b292      	uxth	r2, r2
    1260:	3b17      	subs	r3, #23
    1262:	2a00      	cmp	r2, #0
    1264:	d12b      	bne.n	12be <usart_read_wait+0x6a>
    1266:	6802      	ldr	r2, [r0, #0]
    1268:	7e10      	ldrb	r0, [r2, #24]
    126a:	0740      	lsls	r0, r0, #29
    126c:	d527      	bpl.n	12be <usart_read_wait+0x6a>
    126e:	69d3      	ldr	r3, [r2, #28]
    1270:	2b00      	cmp	r3, #0
    1272:	d1fc      	bne.n	126e <usart_read_wait+0x1a>
    1274:	8b53      	ldrh	r3, [r2, #26]
    1276:	b2db      	uxtb	r3, r3
    1278:	0698      	lsls	r0, r3, #26
    127a:	d01d      	beq.n	12b8 <usart_read_wait+0x64>
    127c:	0798      	lsls	r0, r3, #30
    127e:	d503      	bpl.n	1288 <usart_read_wait+0x34>
    1280:	2302      	movs	r3, #2
    1282:	8353      	strh	r3, [r2, #26]
    1284:	3318      	adds	r3, #24
    1286:	e01a      	b.n	12be <usart_read_wait+0x6a>
    1288:	0758      	lsls	r0, r3, #29
    128a:	d503      	bpl.n	1294 <usart_read_wait+0x40>
    128c:	2304      	movs	r3, #4
    128e:	8353      	strh	r3, [r2, #26]
    1290:	331a      	adds	r3, #26
    1292:	e014      	b.n	12be <usart_read_wait+0x6a>
    1294:	07d8      	lsls	r0, r3, #31
    1296:	d503      	bpl.n	12a0 <usart_read_wait+0x4c>
    1298:	2301      	movs	r3, #1
    129a:	8353      	strh	r3, [r2, #26]
    129c:	3312      	adds	r3, #18
    129e:	e00e      	b.n	12be <usart_read_wait+0x6a>
    12a0:	06d8      	lsls	r0, r3, #27
    12a2:	d503      	bpl.n	12ac <usart_read_wait+0x58>
    12a4:	2310      	movs	r3, #16
    12a6:	8353      	strh	r3, [r2, #26]
    12a8:	3332      	adds	r3, #50	; 0x32
    12aa:	e008      	b.n	12be <usart_read_wait+0x6a>
    12ac:	069b      	lsls	r3, r3, #26
    12ae:	d503      	bpl.n	12b8 <usart_read_wait+0x64>
    12b0:	2320      	movs	r3, #32
    12b2:	8353      	strh	r3, [r2, #26]
    12b4:	3321      	adds	r3, #33	; 0x21
    12b6:	e002      	b.n	12be <usart_read_wait+0x6a>
    12b8:	8d13      	ldrh	r3, [r2, #40]	; 0x28
    12ba:	800b      	strh	r3, [r1, #0]
    12bc:	2300      	movs	r3, #0
    12be:	0018      	movs	r0, r3
    12c0:	4770      	bx	lr
    12c2:	46c0      	nop			; (mov r8, r8)

000012c4 <_usart_interrupt_handler>:
    12c4:	b5f8      	push	{r3, r4, r5, r6, r7, lr}
    12c6:	0080      	lsls	r0, r0, #2
    12c8:	4b60      	ldr	r3, [pc, #384]	; (144c <_usart_interrupt_handler+0x188>)
    12ca:	58c5      	ldr	r5, [r0, r3]
    12cc:	682c      	ldr	r4, [r5, #0]
    12ce:	69e3      	ldr	r3, [r4, #28]
    12d0:	2b00      	cmp	r3, #0
    12d2:	d1fc      	bne.n	12ce <_usart_interrupt_handler+0xa>
    12d4:	7e23      	ldrb	r3, [r4, #24]
    12d6:	7da6      	ldrb	r6, [r4, #22]
    12d8:	401e      	ands	r6, r3
    12da:	2330      	movs	r3, #48	; 0x30
    12dc:	5ceb      	ldrb	r3, [r5, r3]
    12de:	2231      	movs	r2, #49	; 0x31
    12e0:	5caf      	ldrb	r7, [r5, r2]
    12e2:	401f      	ands	r7, r3
    12e4:	07f3      	lsls	r3, r6, #31
    12e6:	d522      	bpl.n	132e <_usart_interrupt_handler+0x6a>
    12e8:	8deb      	ldrh	r3, [r5, #46]	; 0x2e
    12ea:	b29b      	uxth	r3, r3
    12ec:	2b00      	cmp	r3, #0
    12ee:	d01c      	beq.n	132a <_usart_interrupt_handler+0x66>
    12f0:	6aaa      	ldr	r2, [r5, #40]	; 0x28
    12f2:	7813      	ldrb	r3, [r2, #0]
    12f4:	b2db      	uxtb	r3, r3
    12f6:	1c51      	adds	r1, r2, #1
    12f8:	62a9      	str	r1, [r5, #40]	; 0x28
    12fa:	7969      	ldrb	r1, [r5, #5]
    12fc:	2901      	cmp	r1, #1
    12fe:	d001      	beq.n	1304 <_usart_interrupt_handler+0x40>
    1300:	b29b      	uxth	r3, r3
    1302:	e004      	b.n	130e <_usart_interrupt_handler+0x4a>
    1304:	7851      	ldrb	r1, [r2, #1]
    1306:	0209      	lsls	r1, r1, #8
    1308:	430b      	orrs	r3, r1
    130a:	3202      	adds	r2, #2
    130c:	62aa      	str	r2, [r5, #40]	; 0x28
    130e:	05db      	lsls	r3, r3, #23
    1310:	0ddb      	lsrs	r3, r3, #23
    1312:	8523      	strh	r3, [r4, #40]	; 0x28
    1314:	8deb      	ldrh	r3, [r5, #46]	; 0x2e
    1316:	3b01      	subs	r3, #1
    1318:	b29b      	uxth	r3, r3
    131a:	85eb      	strh	r3, [r5, #46]	; 0x2e
    131c:	2b00      	cmp	r3, #0
    131e:	d106      	bne.n	132e <_usart_interrupt_handler+0x6a>
    1320:	3301      	adds	r3, #1
    1322:	7523      	strb	r3, [r4, #20]
    1324:	3301      	adds	r3, #1
    1326:	75a3      	strb	r3, [r4, #22]
    1328:	e001      	b.n	132e <_usart_interrupt_handler+0x6a>
    132a:	2301      	movs	r3, #1
    132c:	7523      	strb	r3, [r4, #20]
    132e:	07b3      	lsls	r3, r6, #30
    1330:	d509      	bpl.n	1346 <_usart_interrupt_handler+0x82>
    1332:	2302      	movs	r3, #2
    1334:	7523      	strb	r3, [r4, #20]
    1336:	2200      	movs	r2, #0
    1338:	3331      	adds	r3, #49	; 0x31
    133a:	54ea      	strb	r2, [r5, r3]
    133c:	07fb      	lsls	r3, r7, #31
    133e:	d502      	bpl.n	1346 <_usart_interrupt_handler+0x82>
    1340:	0028      	movs	r0, r5
    1342:	68eb      	ldr	r3, [r5, #12]
    1344:	4798      	blx	r3
    1346:	0773      	lsls	r3, r6, #29
    1348:	d560      	bpl.n	140c <_usart_interrupt_handler+0x148>
    134a:	8dab      	ldrh	r3, [r5, #44]	; 0x2c
    134c:	b29b      	uxth	r3, r3
    134e:	2b00      	cmp	r3, #0
    1350:	d05a      	beq.n	1408 <_usart_interrupt_handler+0x144>
    1352:	8b63      	ldrh	r3, [r4, #26]
    1354:	b2db      	uxtb	r3, r3
    1356:	071a      	lsls	r2, r3, #28
    1358:	d402      	bmi.n	1360 <_usart_interrupt_handler+0x9c>
    135a:	223f      	movs	r2, #63	; 0x3f
    135c:	4013      	ands	r3, r2
    135e:	e001      	b.n	1364 <_usart_interrupt_handler+0xa0>
    1360:	2237      	movs	r2, #55	; 0x37
    1362:	4013      	ands	r3, r2
    1364:	2b00      	cmp	r3, #0
    1366:	d02d      	beq.n	13c4 <_usart_interrupt_handler+0x100>
    1368:	079a      	lsls	r2, r3, #30
    136a:	d505      	bpl.n	1378 <_usart_interrupt_handler+0xb4>
    136c:	221a      	movs	r2, #26
    136e:	2332      	movs	r3, #50	; 0x32
    1370:	54ea      	strb	r2, [r5, r3]
    1372:	3b30      	subs	r3, #48	; 0x30
    1374:	8363      	strh	r3, [r4, #26]
    1376:	e01f      	b.n	13b8 <_usart_interrupt_handler+0xf4>
    1378:	075a      	lsls	r2, r3, #29
    137a:	d505      	bpl.n	1388 <_usart_interrupt_handler+0xc4>
    137c:	221e      	movs	r2, #30
    137e:	2332      	movs	r3, #50	; 0x32
    1380:	54ea      	strb	r2, [r5, r3]
    1382:	3b2e      	subs	r3, #46	; 0x2e
    1384:	8363      	strh	r3, [r4, #26]
    1386:	e017      	b.n	13b8 <_usart_interrupt_handler+0xf4>
    1388:	07da      	lsls	r2, r3, #31
    138a:	d505      	bpl.n	1398 <_usart_interrupt_handler+0xd4>
    138c:	2213      	movs	r2, #19
    138e:	2332      	movs	r3, #50	; 0x32
    1390:	54ea      	strb	r2, [r5, r3]
    1392:	3b31      	subs	r3, #49	; 0x31
    1394:	8363      	strh	r3, [r4, #26]
    1396:	e00f      	b.n	13b8 <_usart_interrupt_handler+0xf4>
    1398:	06da      	lsls	r2, r3, #27
    139a:	d505      	bpl.n	13a8 <_usart_interrupt_handler+0xe4>
    139c:	2242      	movs	r2, #66	; 0x42
    139e:	2332      	movs	r3, #50	; 0x32
    13a0:	54ea      	strb	r2, [r5, r3]
    13a2:	3b22      	subs	r3, #34	; 0x22
    13a4:	8363      	strh	r3, [r4, #26]
    13a6:	e007      	b.n	13b8 <_usart_interrupt_handler+0xf4>
    13a8:	2220      	movs	r2, #32
    13aa:	421a      	tst	r2, r3
    13ac:	d004      	beq.n	13b8 <_usart_interrupt_handler+0xf4>
    13ae:	3221      	adds	r2, #33	; 0x21
    13b0:	2332      	movs	r3, #50	; 0x32
    13b2:	54ea      	strb	r2, [r5, r3]
    13b4:	3b12      	subs	r3, #18
    13b6:	8363      	strh	r3, [r4, #26]
    13b8:	077b      	lsls	r3, r7, #29
    13ba:	d527      	bpl.n	140c <_usart_interrupt_handler+0x148>
    13bc:	0028      	movs	r0, r5
    13be:	696b      	ldr	r3, [r5, #20]
    13c0:	4798      	blx	r3
    13c2:	e023      	b.n	140c <_usart_interrupt_handler+0x148>
    13c4:	8d23      	ldrh	r3, [r4, #40]	; 0x28
    13c6:	05db      	lsls	r3, r3, #23
    13c8:	0ddb      	lsrs	r3, r3, #23
    13ca:	b2da      	uxtb	r2, r3
    13cc:	6a69      	ldr	r1, [r5, #36]	; 0x24
    13ce:	700a      	strb	r2, [r1, #0]
    13d0:	6a6a      	ldr	r2, [r5, #36]	; 0x24
    13d2:	1c51      	adds	r1, r2, #1
    13d4:	6269      	str	r1, [r5, #36]	; 0x24
    13d6:	7969      	ldrb	r1, [r5, #5]
    13d8:	2901      	cmp	r1, #1
    13da:	d104      	bne.n	13e6 <_usart_interrupt_handler+0x122>
    13dc:	0a1b      	lsrs	r3, r3, #8
    13de:	7053      	strb	r3, [r2, #1]
    13e0:	6a6b      	ldr	r3, [r5, #36]	; 0x24
    13e2:	3301      	adds	r3, #1
    13e4:	626b      	str	r3, [r5, #36]	; 0x24
    13e6:	8dab      	ldrh	r3, [r5, #44]	; 0x2c
    13e8:	3b01      	subs	r3, #1
    13ea:	b29b      	uxth	r3, r3
    13ec:	85ab      	strh	r3, [r5, #44]	; 0x2c
    13ee:	2b00      	cmp	r3, #0
    13f0:	d10c      	bne.n	140c <_usart_interrupt_handler+0x148>
    13f2:	3304      	adds	r3, #4
    13f4:	7523      	strb	r3, [r4, #20]
    13f6:	2200      	movs	r2, #0
    13f8:	332e      	adds	r3, #46	; 0x2e
    13fa:	54ea      	strb	r2, [r5, r3]
    13fc:	07bb      	lsls	r3, r7, #30
    13fe:	d505      	bpl.n	140c <_usart_interrupt_handler+0x148>
    1400:	0028      	movs	r0, r5
    1402:	692b      	ldr	r3, [r5, #16]
    1404:	4798      	blx	r3
    1406:	e001      	b.n	140c <_usart_interrupt_handler+0x148>
    1408:	2304      	movs	r3, #4
    140a:	7523      	strb	r3, [r4, #20]
    140c:	06f3      	lsls	r3, r6, #27
    140e:	d507      	bpl.n	1420 <_usart_interrupt_handler+0x15c>
    1410:	2310      	movs	r3, #16
    1412:	7523      	strb	r3, [r4, #20]
    1414:	7623      	strb	r3, [r4, #24]
    1416:	06fb      	lsls	r3, r7, #27
    1418:	d502      	bpl.n	1420 <_usart_interrupt_handler+0x15c>
    141a:	0028      	movs	r0, r5
    141c:	69eb      	ldr	r3, [r5, #28]
    141e:	4798      	blx	r3
    1420:	06b3      	lsls	r3, r6, #26
    1422:	d507      	bpl.n	1434 <_usart_interrupt_handler+0x170>
    1424:	2320      	movs	r3, #32
    1426:	7523      	strb	r3, [r4, #20]
    1428:	7623      	strb	r3, [r4, #24]
    142a:	073b      	lsls	r3, r7, #28
    142c:	d502      	bpl.n	1434 <_usart_interrupt_handler+0x170>
    142e:	0028      	movs	r0, r5
    1430:	69ab      	ldr	r3, [r5, #24]
    1432:	4798      	blx	r3
    1434:	0733      	lsls	r3, r6, #28
    1436:	d507      	bpl.n	1448 <_usart_interrupt_handler+0x184>
    1438:	2308      	movs	r3, #8
    143a:	7523      	strb	r3, [r4, #20]
    143c:	7623      	strb	r3, [r4, #24]
    143e:	06bb      	lsls	r3, r7, #26
    1440:	d502      	bpl.n	1448 <_usart_interrupt_handler+0x184>
    1442:	6a2b      	ldr	r3, [r5, #32]
    1444:	0028      	movs	r0, r5
    1446:	4798      	blx	r3
    1448:	bdf8      	pop	{r3, r4, r5, r6, r7, pc}
    144a:	46c0      	nop			; (mov r8, r8)
    144c:	200001cc 	.word	0x200001cc

00001450 <EIC_Handler>:
    1450:	b570      	push	{r4, r5, r6, lr}
    1452:	2200      	movs	r2, #0
    1454:	4b15      	ldr	r3, [pc, #84]	; (14ac <EIC_Handler+0x5c>)
    1456:	701a      	strb	r2, [r3, #0]
    1458:	2300      	movs	r3, #0
    145a:	251f      	movs	r5, #31
    145c:	4e14      	ldr	r6, [pc, #80]	; (14b0 <EIC_Handler+0x60>)
    145e:	4c13      	ldr	r4, [pc, #76]	; (14ac <EIC_Handler+0x5c>)
    1460:	2b1f      	cmp	r3, #31
    1462:	d919      	bls.n	1498 <EIC_Handler+0x48>
    1464:	e00f      	b.n	1486 <EIC_Handler+0x36>
    1466:	2100      	movs	r1, #0
    1468:	e000      	b.n	146c <EIC_Handler+0x1c>
    146a:	4912      	ldr	r1, [pc, #72]	; (14b4 <EIC_Handler+0x64>)
    146c:	610a      	str	r2, [r1, #16]
    146e:	009b      	lsls	r3, r3, #2
    1470:	599b      	ldr	r3, [r3, r6]
    1472:	2b00      	cmp	r3, #0
    1474:	d000      	beq.n	1478 <EIC_Handler+0x28>
    1476:	4798      	blx	r3
    1478:	7823      	ldrb	r3, [r4, #0]
    147a:	3301      	adds	r3, #1
    147c:	b2db      	uxtb	r3, r3
    147e:	7023      	strb	r3, [r4, #0]
    1480:	2b0f      	cmp	r3, #15
    1482:	d9ed      	bls.n	1460 <EIC_Handler+0x10>
    1484:	e011      	b.n	14aa <EIC_Handler+0x5a>
    1486:	0029      	movs	r1, r5
    1488:	4019      	ands	r1, r3
    148a:	2201      	movs	r2, #1
    148c:	408a      	lsls	r2, r1
    148e:	2100      	movs	r1, #0
    1490:	6909      	ldr	r1, [r1, #16]
    1492:	4211      	tst	r1, r2
    1494:	d1e7      	bne.n	1466 <EIC_Handler+0x16>
    1496:	e7ef      	b.n	1478 <EIC_Handler+0x28>
    1498:	0029      	movs	r1, r5
    149a:	4019      	ands	r1, r3
    149c:	2201      	movs	r2, #1
    149e:	408a      	lsls	r2, r1
    14a0:	4904      	ldr	r1, [pc, #16]	; (14b4 <EIC_Handler+0x64>)
    14a2:	6909      	ldr	r1, [r1, #16]
    14a4:	4211      	tst	r1, r2
    14a6:	d1e0      	bne.n	146a <EIC_Handler+0x1a>
    14a8:	e7e6      	b.n	1478 <EIC_Handler+0x28>
    14aa:	bd70      	pop	{r4, r5, r6, pc}
    14ac:	200001c8 	.word	0x200001c8
    14b0:	20000164 	.word	0x20000164
    14b4:	40001800 	.word	0x40001800

000014b8 <delay_init>:
    14b8:	b570      	push	{r4, r5, r6, lr}
    14ba:	2000      	movs	r0, #0
    14bc:	4b08      	ldr	r3, [pc, #32]	; (14e0 <delay_init+0x28>)
    14be:	4798      	blx	r3
    14c0:	0005      	movs	r5, r0
    14c2:	4c08      	ldr	r4, [pc, #32]	; (14e4 <delay_init+0x2c>)
    14c4:	21fa      	movs	r1, #250	; 0xfa
    14c6:	0089      	lsls	r1, r1, #2
    14c8:	47a0      	blx	r4
    14ca:	4b07      	ldr	r3, [pc, #28]	; (14e8 <delay_init+0x30>)
    14cc:	6018      	str	r0, [r3, #0]
    14ce:	4907      	ldr	r1, [pc, #28]	; (14ec <delay_init+0x34>)
    14d0:	0028      	movs	r0, r5
    14d2:	47a0      	blx	r4
    14d4:	4b06      	ldr	r3, [pc, #24]	; (14f0 <delay_init+0x38>)
    14d6:	6018      	str	r0, [r3, #0]
    14d8:	2205      	movs	r2, #5
    14da:	4b06      	ldr	r3, [pc, #24]	; (14f4 <delay_init+0x3c>)
    14dc:	601a      	str	r2, [r3, #0]
    14de:	bd70      	pop	{r4, r5, r6, pc}
    14e0:	00001e0d 	.word	0x00001e0d
    14e4:	00002435 	.word	0x00002435
    14e8:	20000018 	.word	0x20000018
    14ec:	000f4240 	.word	0x000f4240
    14f0:	20000014 	.word	0x20000014
    14f4:	e000e010 	.word	0xe000e010

000014f8 <delay_cycles_ms>:
    14f8:	b530      	push	{r4, r5, lr}
    14fa:	4b08      	ldr	r3, [pc, #32]	; (151c <delay_cycles_ms+0x24>)
    14fc:	681c      	ldr	r4, [r3, #0]
    14fe:	4a08      	ldr	r2, [pc, #32]	; (1520 <delay_cycles_ms+0x28>)
    1500:	2500      	movs	r5, #0
    1502:	2180      	movs	r1, #128	; 0x80
    1504:	0249      	lsls	r1, r1, #9
    1506:	e006      	b.n	1516 <delay_cycles_ms+0x1e>
    1508:	2c00      	cmp	r4, #0
    150a:	d004      	beq.n	1516 <delay_cycles_ms+0x1e>
    150c:	6054      	str	r4, [r2, #4]
    150e:	6095      	str	r5, [r2, #8]
    1510:	6813      	ldr	r3, [r2, #0]
    1512:	420b      	tst	r3, r1
    1514:	d0fc      	beq.n	1510 <delay_cycles_ms+0x18>
    1516:	3801      	subs	r0, #1
    1518:	d2f6      	bcs.n	1508 <delay_cycles_ms+0x10>
    151a:	bd30      	pop	{r4, r5, pc}
    151c:	20000018 	.word	0x20000018
    1520:	e000e010 	.word	0xe000e010

00001524 <_sercom_get_sync_baud_val>:
    1524:	b510      	push	{r4, lr}
    1526:	0849      	lsrs	r1, r1, #1
    1528:	2340      	movs	r3, #64	; 0x40
    152a:	2400      	movs	r4, #0
    152c:	4281      	cmp	r1, r0
    152e:	d201      	bcs.n	1534 <_sercom_get_sync_baud_val+0x10>
    1530:	e00a      	b.n	1548 <_sercom_get_sync_baud_val+0x24>
    1532:	001c      	movs	r4, r3
    1534:	1a09      	subs	r1, r1, r0
    1536:	1c63      	adds	r3, r4, #1
    1538:	b29b      	uxth	r3, r3
    153a:	4288      	cmp	r0, r1
    153c:	d9f9      	bls.n	1532 <_sercom_get_sync_baud_val+0xe>
    153e:	2340      	movs	r3, #64	; 0x40
    1540:	2cff      	cmp	r4, #255	; 0xff
    1542:	d801      	bhi.n	1548 <_sercom_get_sync_baud_val+0x24>
    1544:	8014      	strh	r4, [r2, #0]
    1546:	2300      	movs	r3, #0
    1548:	0018      	movs	r0, r3
    154a:	bd10      	pop	{r4, pc}

0000154c <_sercom_get_async_baud_val>:
    154c:	b5f0      	push	{r4, r5, r6, r7, lr}
    154e:	465f      	mov	r7, fp
    1550:	4656      	mov	r6, sl
    1552:	464d      	mov	r5, r9
    1554:	4644      	mov	r4, r8
    1556:	b4f0      	push	{r4, r5, r6, r7}
    1558:	b089      	sub	sp, #36	; 0x24
    155a:	000c      	movs	r4, r1
    155c:	9205      	str	r2, [sp, #20]
    155e:	aa12      	add	r2, sp, #72	; 0x48
    1560:	7811      	ldrb	r1, [r2, #0]
    1562:	0002      	movs	r2, r0
    1564:	434a      	muls	r2, r1
    1566:	2540      	movs	r5, #64	; 0x40
    1568:	42a2      	cmp	r2, r4
    156a:	d900      	bls.n	156e <_sercom_get_async_baud_val+0x22>
    156c:	e0c6      	b.n	16fc <_sercom_get_async_baud_val+0x1b0>
    156e:	2b00      	cmp	r3, #0
    1570:	d151      	bne.n	1616 <_sercom_get_async_baud_val+0xca>
    1572:	0002      	movs	r2, r0
    1574:	0008      	movs	r0, r1
    1576:	2100      	movs	r1, #0
    1578:	4d64      	ldr	r5, [pc, #400]	; (170c <_sercom_get_async_baud_val+0x1c0>)
    157a:	47a8      	blx	r5
    157c:	4683      	mov	fp, r0
    157e:	0026      	movs	r6, r4
    1580:	2700      	movs	r7, #0
    1582:	2300      	movs	r3, #0
    1584:	2400      	movs	r4, #0
    1586:	9300      	str	r3, [sp, #0]
    1588:	9401      	str	r4, [sp, #4]
    158a:	2200      	movs	r2, #0
    158c:	2300      	movs	r3, #0
    158e:	203f      	movs	r0, #63	; 0x3f
    1590:	2120      	movs	r1, #32
    1592:	468c      	mov	ip, r1
    1594:	391f      	subs	r1, #31
    1596:	9602      	str	r6, [sp, #8]
    1598:	9703      	str	r7, [sp, #12]
    159a:	2420      	movs	r4, #32
    159c:	4264      	negs	r4, r4
    159e:	1904      	adds	r4, r0, r4
    15a0:	d403      	bmi.n	15aa <_sercom_get_async_baud_val+0x5e>
    15a2:	000d      	movs	r5, r1
    15a4:	40a5      	lsls	r5, r4
    15a6:	46a8      	mov	r8, r5
    15a8:	e004      	b.n	15b4 <_sercom_get_async_baud_val+0x68>
    15aa:	4664      	mov	r4, ip
    15ac:	1a24      	subs	r4, r4, r0
    15ae:	000d      	movs	r5, r1
    15b0:	40e5      	lsrs	r5, r4
    15b2:	46a8      	mov	r8, r5
    15b4:	000c      	movs	r4, r1
    15b6:	4084      	lsls	r4, r0
    15b8:	46a1      	mov	r9, r4
    15ba:	0014      	movs	r4, r2
    15bc:	001d      	movs	r5, r3
    15be:	18a4      	adds	r4, r4, r2
    15c0:	415d      	adcs	r5, r3
    15c2:	0022      	movs	r2, r4
    15c4:	002b      	movs	r3, r5
    15c6:	4646      	mov	r6, r8
    15c8:	465f      	mov	r7, fp
    15ca:	423e      	tst	r6, r7
    15cc:	d003      	beq.n	15d6 <_sercom_get_async_baud_val+0x8a>
    15ce:	000e      	movs	r6, r1
    15d0:	4326      	orrs	r6, r4
    15d2:	0032      	movs	r2, r6
    15d4:	002b      	movs	r3, r5
    15d6:	9c02      	ldr	r4, [sp, #8]
    15d8:	9d03      	ldr	r5, [sp, #12]
    15da:	429d      	cmp	r5, r3
    15dc:	d80f      	bhi.n	15fe <_sercom_get_async_baud_val+0xb2>
    15de:	d101      	bne.n	15e4 <_sercom_get_async_baud_val+0x98>
    15e0:	4294      	cmp	r4, r2
    15e2:	d80c      	bhi.n	15fe <_sercom_get_async_baud_val+0xb2>
    15e4:	9c02      	ldr	r4, [sp, #8]
    15e6:	9d03      	ldr	r5, [sp, #12]
    15e8:	1b12      	subs	r2, r2, r4
    15ea:	41ab      	sbcs	r3, r5
    15ec:	464d      	mov	r5, r9
    15ee:	9e00      	ldr	r6, [sp, #0]
    15f0:	9f01      	ldr	r7, [sp, #4]
    15f2:	4335      	orrs	r5, r6
    15f4:	003c      	movs	r4, r7
    15f6:	4646      	mov	r6, r8
    15f8:	4334      	orrs	r4, r6
    15fa:	9500      	str	r5, [sp, #0]
    15fc:	9401      	str	r4, [sp, #4]
    15fe:	3801      	subs	r0, #1
    1600:	d2cb      	bcs.n	159a <_sercom_get_async_baud_val+0x4e>
    1602:	2200      	movs	r2, #0
    1604:	2301      	movs	r3, #1
    1606:	9800      	ldr	r0, [sp, #0]
    1608:	9901      	ldr	r1, [sp, #4]
    160a:	1a12      	subs	r2, r2, r0
    160c:	418b      	sbcs	r3, r1
    160e:	0c12      	lsrs	r2, r2, #16
    1610:	041b      	lsls	r3, r3, #16
    1612:	431a      	orrs	r2, r3
    1614:	e06f      	b.n	16f6 <_sercom_get_async_baud_val+0x1aa>
    1616:	2200      	movs	r2, #0
    1618:	2b01      	cmp	r3, #1
    161a:	d16c      	bne.n	16f6 <_sercom_get_async_baud_val+0x1aa>
    161c:	0f63      	lsrs	r3, r4, #29
    161e:	9304      	str	r3, [sp, #16]
    1620:	00e3      	lsls	r3, r4, #3
    1622:	4698      	mov	r8, r3
    1624:	000a      	movs	r2, r1
    1626:	2300      	movs	r3, #0
    1628:	2100      	movs	r1, #0
    162a:	4c38      	ldr	r4, [pc, #224]	; (170c <_sercom_get_async_baud_val+0x1c0>)
    162c:	47a0      	blx	r4
    162e:	0004      	movs	r4, r0
    1630:	000d      	movs	r5, r1
    1632:	2300      	movs	r3, #0
    1634:	469c      	mov	ip, r3
    1636:	9306      	str	r3, [sp, #24]
    1638:	3320      	adds	r3, #32
    163a:	469b      	mov	fp, r3
    163c:	2601      	movs	r6, #1
    163e:	4663      	mov	r3, ip
    1640:	9307      	str	r3, [sp, #28]
    1642:	2300      	movs	r3, #0
    1644:	9302      	str	r3, [sp, #8]
    1646:	2200      	movs	r2, #0
    1648:	2300      	movs	r3, #0
    164a:	213f      	movs	r1, #63	; 0x3f
    164c:	9400      	str	r4, [sp, #0]
    164e:	9501      	str	r5, [sp, #4]
    1650:	000f      	movs	r7, r1
    1652:	2120      	movs	r1, #32
    1654:	4249      	negs	r1, r1
    1656:	1879      	adds	r1, r7, r1
    1658:	d403      	bmi.n	1662 <_sercom_get_async_baud_val+0x116>
    165a:	0030      	movs	r0, r6
    165c:	4088      	lsls	r0, r1
    165e:	4684      	mov	ip, r0
    1660:	e004      	b.n	166c <_sercom_get_async_baud_val+0x120>
    1662:	4659      	mov	r1, fp
    1664:	1bc9      	subs	r1, r1, r7
    1666:	0030      	movs	r0, r6
    1668:	40c8      	lsrs	r0, r1
    166a:	4684      	mov	ip, r0
    166c:	0031      	movs	r1, r6
    166e:	40b9      	lsls	r1, r7
    1670:	4689      	mov	r9, r1
    1672:	0010      	movs	r0, r2
    1674:	0019      	movs	r1, r3
    1676:	1880      	adds	r0, r0, r2
    1678:	4159      	adcs	r1, r3
    167a:	0002      	movs	r2, r0
    167c:	000b      	movs	r3, r1
    167e:	4644      	mov	r4, r8
    1680:	464d      	mov	r5, r9
    1682:	402c      	ands	r4, r5
    1684:	46a2      	mov	sl, r4
    1686:	4664      	mov	r4, ip
    1688:	9d04      	ldr	r5, [sp, #16]
    168a:	402c      	ands	r4, r5
    168c:	46a4      	mov	ip, r4
    168e:	4654      	mov	r4, sl
    1690:	4665      	mov	r5, ip
    1692:	432c      	orrs	r4, r5
    1694:	d003      	beq.n	169e <_sercom_get_async_baud_val+0x152>
    1696:	0034      	movs	r4, r6
    1698:	4304      	orrs	r4, r0
    169a:	0022      	movs	r2, r4
    169c:	000b      	movs	r3, r1
    169e:	9800      	ldr	r0, [sp, #0]
    16a0:	9901      	ldr	r1, [sp, #4]
    16a2:	4299      	cmp	r1, r3
    16a4:	d80a      	bhi.n	16bc <_sercom_get_async_baud_val+0x170>
    16a6:	d101      	bne.n	16ac <_sercom_get_async_baud_val+0x160>
    16a8:	4290      	cmp	r0, r2
    16aa:	d807      	bhi.n	16bc <_sercom_get_async_baud_val+0x170>
    16ac:	9800      	ldr	r0, [sp, #0]
    16ae:	9901      	ldr	r1, [sp, #4]
    16b0:	1a12      	subs	r2, r2, r0
    16b2:	418b      	sbcs	r3, r1
    16b4:	9902      	ldr	r1, [sp, #8]
    16b6:	4648      	mov	r0, r9
    16b8:	4301      	orrs	r1, r0
    16ba:	9102      	str	r1, [sp, #8]
    16bc:	3f01      	subs	r7, #1
    16be:	d2c8      	bcs.n	1652 <_sercom_get_async_baud_val+0x106>
    16c0:	9c00      	ldr	r4, [sp, #0]
    16c2:	9d01      	ldr	r5, [sp, #4]
    16c4:	9902      	ldr	r1, [sp, #8]
    16c6:	9a07      	ldr	r2, [sp, #28]
    16c8:	1a8b      	subs	r3, r1, r2
    16ca:	08db      	lsrs	r3, r3, #3
    16cc:	4910      	ldr	r1, [pc, #64]	; (1710 <_sercom_get_async_baud_val+0x1c4>)
    16ce:	428b      	cmp	r3, r1
    16d0:	d90b      	bls.n	16ea <_sercom_get_async_baud_val+0x19e>
    16d2:	9b06      	ldr	r3, [sp, #24]
    16d4:	3301      	adds	r3, #1
    16d6:	b2db      	uxtb	r3, r3
    16d8:	0019      	movs	r1, r3
    16da:	9306      	str	r3, [sp, #24]
    16dc:	0013      	movs	r3, r2
    16de:	3301      	adds	r3, #1
    16e0:	9307      	str	r3, [sp, #28]
    16e2:	2908      	cmp	r1, #8
    16e4:	d1ad      	bne.n	1642 <_sercom_get_async_baud_val+0xf6>
    16e6:	2540      	movs	r5, #64	; 0x40
    16e8:	e008      	b.n	16fc <_sercom_get_async_baud_val+0x1b0>
    16ea:	2540      	movs	r5, #64	; 0x40
    16ec:	9a06      	ldr	r2, [sp, #24]
    16ee:	2a08      	cmp	r2, #8
    16f0:	d004      	beq.n	16fc <_sercom_get_async_baud_val+0x1b0>
    16f2:	0352      	lsls	r2, r2, #13
    16f4:	431a      	orrs	r2, r3
    16f6:	9b05      	ldr	r3, [sp, #20]
    16f8:	801a      	strh	r2, [r3, #0]
    16fa:	2500      	movs	r5, #0
    16fc:	0028      	movs	r0, r5
    16fe:	b009      	add	sp, #36	; 0x24
    1700:	bc3c      	pop	{r2, r3, r4, r5}
    1702:	4690      	mov	r8, r2
    1704:	4699      	mov	r9, r3
    1706:	46a2      	mov	sl, r4
    1708:	46ab      	mov	fp, r5
    170a:	bdf0      	pop	{r4, r5, r6, r7, pc}
    170c:	0000254d 	.word	0x0000254d
    1710:	00001fff 	.word	0x00001fff

00001714 <sercom_set_gclk_generator>:
    1714:	b510      	push	{r4, lr}
    1716:	b082      	sub	sp, #8
    1718:	0004      	movs	r4, r0
    171a:	4b0e      	ldr	r3, [pc, #56]	; (1754 <sercom_set_gclk_generator+0x40>)
    171c:	781b      	ldrb	r3, [r3, #0]
    171e:	2b00      	cmp	r3, #0
    1720:	d001      	beq.n	1726 <sercom_set_gclk_generator+0x12>
    1722:	2900      	cmp	r1, #0
    1724:	d00d      	beq.n	1742 <sercom_set_gclk_generator+0x2e>
    1726:	a901      	add	r1, sp, #4
    1728:	700c      	strb	r4, [r1, #0]
    172a:	2013      	movs	r0, #19
    172c:	4b0a      	ldr	r3, [pc, #40]	; (1758 <sercom_set_gclk_generator+0x44>)
    172e:	4798      	blx	r3
    1730:	2013      	movs	r0, #19
    1732:	4b0a      	ldr	r3, [pc, #40]	; (175c <sercom_set_gclk_generator+0x48>)
    1734:	4798      	blx	r3
    1736:	4b07      	ldr	r3, [pc, #28]	; (1754 <sercom_set_gclk_generator+0x40>)
    1738:	705c      	strb	r4, [r3, #1]
    173a:	2201      	movs	r2, #1
    173c:	701a      	strb	r2, [r3, #0]
    173e:	2000      	movs	r0, #0
    1740:	e006      	b.n	1750 <sercom_set_gclk_generator+0x3c>
    1742:	4b04      	ldr	r3, [pc, #16]	; (1754 <sercom_set_gclk_generator+0x40>)
    1744:	785b      	ldrb	r3, [r3, #1]
    1746:	4283      	cmp	r3, r0
    1748:	d001      	beq.n	174e <sercom_set_gclk_generator+0x3a>
    174a:	201d      	movs	r0, #29
    174c:	e000      	b.n	1750 <sercom_set_gclk_generator+0x3c>
    174e:	2000      	movs	r0, #0
    1750:	b002      	add	sp, #8
    1752:	bd10      	pop	{r4, pc}
    1754:	200000a0 	.word	0x200000a0
    1758:	00001f25 	.word	0x00001f25
    175c:	00001e99 	.word	0x00001e99

00001760 <_sercom_get_default_pad>:
    1760:	4b44      	ldr	r3, [pc, #272]	; (1874 <_sercom_get_default_pad+0x114>)
    1762:	4298      	cmp	r0, r3
    1764:	d033      	beq.n	17ce <_sercom_get_default_pad+0x6e>
    1766:	d806      	bhi.n	1776 <_sercom_get_default_pad+0x16>
    1768:	4b43      	ldr	r3, [pc, #268]	; (1878 <_sercom_get_default_pad+0x118>)
    176a:	4298      	cmp	r0, r3
    176c:	d00d      	beq.n	178a <_sercom_get_default_pad+0x2a>
    176e:	4b43      	ldr	r3, [pc, #268]	; (187c <_sercom_get_default_pad+0x11c>)
    1770:	4298      	cmp	r0, r3
    1772:	d01b      	beq.n	17ac <_sercom_get_default_pad+0x4c>
    1774:	e06f      	b.n	1856 <_sercom_get_default_pad+0xf6>
    1776:	4b42      	ldr	r3, [pc, #264]	; (1880 <_sercom_get_default_pad+0x120>)
    1778:	4298      	cmp	r0, r3
    177a:	d04a      	beq.n	1812 <_sercom_get_default_pad+0xb2>
    177c:	4b41      	ldr	r3, [pc, #260]	; (1884 <_sercom_get_default_pad+0x124>)
    177e:	4298      	cmp	r0, r3
    1780:	d058      	beq.n	1834 <_sercom_get_default_pad+0xd4>
    1782:	4b41      	ldr	r3, [pc, #260]	; (1888 <_sercom_get_default_pad+0x128>)
    1784:	4298      	cmp	r0, r3
    1786:	d166      	bne.n	1856 <_sercom_get_default_pad+0xf6>
    1788:	e032      	b.n	17f0 <_sercom_get_default_pad+0x90>
    178a:	2901      	cmp	r1, #1
    178c:	d006      	beq.n	179c <_sercom_get_default_pad+0x3c>
    178e:	2900      	cmp	r1, #0
    1790:	d063      	beq.n	185a <_sercom_get_default_pad+0xfa>
    1792:	2902      	cmp	r1, #2
    1794:	d006      	beq.n	17a4 <_sercom_get_default_pad+0x44>
    1796:	2903      	cmp	r1, #3
    1798:	d006      	beq.n	17a8 <_sercom_get_default_pad+0x48>
    179a:	e001      	b.n	17a0 <_sercom_get_default_pad+0x40>
    179c:	483b      	ldr	r0, [pc, #236]	; (188c <_sercom_get_default_pad+0x12c>)
    179e:	e067      	b.n	1870 <_sercom_get_default_pad+0x110>
    17a0:	2000      	movs	r0, #0
    17a2:	e065      	b.n	1870 <_sercom_get_default_pad+0x110>
    17a4:	483a      	ldr	r0, [pc, #232]	; (1890 <_sercom_get_default_pad+0x130>)
    17a6:	e063      	b.n	1870 <_sercom_get_default_pad+0x110>
    17a8:	483a      	ldr	r0, [pc, #232]	; (1894 <_sercom_get_default_pad+0x134>)
    17aa:	e061      	b.n	1870 <_sercom_get_default_pad+0x110>
    17ac:	2901      	cmp	r1, #1
    17ae:	d006      	beq.n	17be <_sercom_get_default_pad+0x5e>
    17b0:	2900      	cmp	r1, #0
    17b2:	d054      	beq.n	185e <_sercom_get_default_pad+0xfe>
    17b4:	2902      	cmp	r1, #2
    17b6:	d006      	beq.n	17c6 <_sercom_get_default_pad+0x66>
    17b8:	2903      	cmp	r1, #3
    17ba:	d006      	beq.n	17ca <_sercom_get_default_pad+0x6a>
    17bc:	e001      	b.n	17c2 <_sercom_get_default_pad+0x62>
    17be:	4836      	ldr	r0, [pc, #216]	; (1898 <_sercom_get_default_pad+0x138>)
    17c0:	e056      	b.n	1870 <_sercom_get_default_pad+0x110>
    17c2:	2000      	movs	r0, #0
    17c4:	e054      	b.n	1870 <_sercom_get_default_pad+0x110>
    17c6:	4835      	ldr	r0, [pc, #212]	; (189c <_sercom_get_default_pad+0x13c>)
    17c8:	e052      	b.n	1870 <_sercom_get_default_pad+0x110>
    17ca:	4835      	ldr	r0, [pc, #212]	; (18a0 <_sercom_get_default_pad+0x140>)
    17cc:	e050      	b.n	1870 <_sercom_get_default_pad+0x110>
    17ce:	2901      	cmp	r1, #1
    17d0:	d006      	beq.n	17e0 <_sercom_get_default_pad+0x80>
    17d2:	2900      	cmp	r1, #0
    17d4:	d045      	beq.n	1862 <_sercom_get_default_pad+0x102>
    17d6:	2902      	cmp	r1, #2
    17d8:	d006      	beq.n	17e8 <_sercom_get_default_pad+0x88>
    17da:	2903      	cmp	r1, #3
    17dc:	d006      	beq.n	17ec <_sercom_get_default_pad+0x8c>
    17de:	e001      	b.n	17e4 <_sercom_get_default_pad+0x84>
    17e0:	4830      	ldr	r0, [pc, #192]	; (18a4 <_sercom_get_default_pad+0x144>)
    17e2:	e045      	b.n	1870 <_sercom_get_default_pad+0x110>
    17e4:	2000      	movs	r0, #0
    17e6:	e043      	b.n	1870 <_sercom_get_default_pad+0x110>
    17e8:	482f      	ldr	r0, [pc, #188]	; (18a8 <_sercom_get_default_pad+0x148>)
    17ea:	e041      	b.n	1870 <_sercom_get_default_pad+0x110>
    17ec:	482f      	ldr	r0, [pc, #188]	; (18ac <_sercom_get_default_pad+0x14c>)
    17ee:	e03f      	b.n	1870 <_sercom_get_default_pad+0x110>
    17f0:	2901      	cmp	r1, #1
    17f2:	d006      	beq.n	1802 <_sercom_get_default_pad+0xa2>
    17f4:	2900      	cmp	r1, #0
    17f6:	d036      	beq.n	1866 <_sercom_get_default_pad+0x106>
    17f8:	2902      	cmp	r1, #2
    17fa:	d006      	beq.n	180a <_sercom_get_default_pad+0xaa>
    17fc:	2903      	cmp	r1, #3
    17fe:	d006      	beq.n	180e <_sercom_get_default_pad+0xae>
    1800:	e001      	b.n	1806 <_sercom_get_default_pad+0xa6>
    1802:	482b      	ldr	r0, [pc, #172]	; (18b0 <_sercom_get_default_pad+0x150>)
    1804:	e034      	b.n	1870 <_sercom_get_default_pad+0x110>
    1806:	2000      	movs	r0, #0
    1808:	e032      	b.n	1870 <_sercom_get_default_pad+0x110>
    180a:	482a      	ldr	r0, [pc, #168]	; (18b4 <_sercom_get_default_pad+0x154>)
    180c:	e030      	b.n	1870 <_sercom_get_default_pad+0x110>
    180e:	482a      	ldr	r0, [pc, #168]	; (18b8 <_sercom_get_default_pad+0x158>)
    1810:	e02e      	b.n	1870 <_sercom_get_default_pad+0x110>
    1812:	2901      	cmp	r1, #1
    1814:	d006      	beq.n	1824 <_sercom_get_default_pad+0xc4>
    1816:	2900      	cmp	r1, #0
    1818:	d027      	beq.n	186a <_sercom_get_default_pad+0x10a>
    181a:	2902      	cmp	r1, #2
    181c:	d006      	beq.n	182c <_sercom_get_default_pad+0xcc>
    181e:	2903      	cmp	r1, #3
    1820:	d006      	beq.n	1830 <_sercom_get_default_pad+0xd0>
    1822:	e001      	b.n	1828 <_sercom_get_default_pad+0xc8>
    1824:	4825      	ldr	r0, [pc, #148]	; (18bc <_sercom_get_default_pad+0x15c>)
    1826:	e023      	b.n	1870 <_sercom_get_default_pad+0x110>
    1828:	2000      	movs	r0, #0
    182a:	e021      	b.n	1870 <_sercom_get_default_pad+0x110>
    182c:	4824      	ldr	r0, [pc, #144]	; (18c0 <_sercom_get_default_pad+0x160>)
    182e:	e01f      	b.n	1870 <_sercom_get_default_pad+0x110>
    1830:	4824      	ldr	r0, [pc, #144]	; (18c4 <_sercom_get_default_pad+0x164>)
    1832:	e01d      	b.n	1870 <_sercom_get_default_pad+0x110>
    1834:	2901      	cmp	r1, #1
    1836:	d006      	beq.n	1846 <_sercom_get_default_pad+0xe6>
    1838:	2900      	cmp	r1, #0
    183a:	d018      	beq.n	186e <_sercom_get_default_pad+0x10e>
    183c:	2902      	cmp	r1, #2
    183e:	d006      	beq.n	184e <_sercom_get_default_pad+0xee>
    1840:	2903      	cmp	r1, #3
    1842:	d006      	beq.n	1852 <_sercom_get_default_pad+0xf2>
    1844:	e001      	b.n	184a <_sercom_get_default_pad+0xea>
    1846:	4820      	ldr	r0, [pc, #128]	; (18c8 <_sercom_get_default_pad+0x168>)
    1848:	e012      	b.n	1870 <_sercom_get_default_pad+0x110>
    184a:	2000      	movs	r0, #0
    184c:	e010      	b.n	1870 <_sercom_get_default_pad+0x110>
    184e:	481f      	ldr	r0, [pc, #124]	; (18cc <_sercom_get_default_pad+0x16c>)
    1850:	e00e      	b.n	1870 <_sercom_get_default_pad+0x110>
    1852:	481f      	ldr	r0, [pc, #124]	; (18d0 <_sercom_get_default_pad+0x170>)
    1854:	e00c      	b.n	1870 <_sercom_get_default_pad+0x110>
    1856:	2000      	movs	r0, #0
    1858:	e00a      	b.n	1870 <_sercom_get_default_pad+0x110>
    185a:	481e      	ldr	r0, [pc, #120]	; (18d4 <_sercom_get_default_pad+0x174>)
    185c:	e008      	b.n	1870 <_sercom_get_default_pad+0x110>
    185e:	2003      	movs	r0, #3
    1860:	e006      	b.n	1870 <_sercom_get_default_pad+0x110>
    1862:	481d      	ldr	r0, [pc, #116]	; (18d8 <_sercom_get_default_pad+0x178>)
    1864:	e004      	b.n	1870 <_sercom_get_default_pad+0x110>
    1866:	481d      	ldr	r0, [pc, #116]	; (18dc <_sercom_get_default_pad+0x17c>)
    1868:	e002      	b.n	1870 <_sercom_get_default_pad+0x110>
    186a:	481d      	ldr	r0, [pc, #116]	; (18e0 <_sercom_get_default_pad+0x180>)
    186c:	e000      	b.n	1870 <_sercom_get_default_pad+0x110>
    186e:	481d      	ldr	r0, [pc, #116]	; (18e4 <_sercom_get_default_pad+0x184>)
    1870:	4770      	bx	lr
    1872:	46c0      	nop			; (mov r8, r8)
    1874:	42001000 	.word	0x42001000
    1878:	42000800 	.word	0x42000800
    187c:	42000c00 	.word	0x42000c00
    1880:	42001800 	.word	0x42001800
    1884:	42001c00 	.word	0x42001c00
    1888:	42001400 	.word	0x42001400
    188c:	00050003 	.word	0x00050003
    1890:	00060003 	.word	0x00060003
    1894:	00070003 	.word	0x00070003
    1898:	00010003 	.word	0x00010003
    189c:	001e0003 	.word	0x001e0003
    18a0:	001f0003 	.word	0x001f0003
    18a4:	000d0002 	.word	0x000d0002
    18a8:	000e0002 	.word	0x000e0002
    18ac:	000f0002 	.word	0x000f0002
    18b0:	00110003 	.word	0x00110003
    18b4:	00120003 	.word	0x00120003
    18b8:	00130003 	.word	0x00130003
    18bc:	003f0005 	.word	0x003f0005
    18c0:	003e0005 	.word	0x003e0005
    18c4:	00520005 	.word	0x00520005
    18c8:	00170003 	.word	0x00170003
    18cc:	00180003 	.word	0x00180003
    18d0:	00190003 	.word	0x00190003
    18d4:	00040003 	.word	0x00040003
    18d8:	000c0002 	.word	0x000c0002
    18dc:	00100003 	.word	0x00100003
    18e0:	00530005 	.word	0x00530005
    18e4:	00160003 	.word	0x00160003

000018e8 <_sercom_get_sercom_inst_index>:
    18e8:	b530      	push	{r4, r5, lr}
    18ea:	b087      	sub	sp, #28
    18ec:	4b0c      	ldr	r3, [pc, #48]	; (1920 <_sercom_get_sercom_inst_index+0x38>)
    18ee:	466a      	mov	r2, sp
    18f0:	cb32      	ldmia	r3!, {r1, r4, r5}
    18f2:	c232      	stmia	r2!, {r1, r4, r5}
    18f4:	cb32      	ldmia	r3!, {r1, r4, r5}
    18f6:	c232      	stmia	r2!, {r1, r4, r5}
    18f8:	9b00      	ldr	r3, [sp, #0]
    18fa:	4283      	cmp	r3, r0
    18fc:	d006      	beq.n	190c <_sercom_get_sercom_inst_index+0x24>
    18fe:	2301      	movs	r3, #1
    1900:	009a      	lsls	r2, r3, #2
    1902:	4669      	mov	r1, sp
    1904:	5852      	ldr	r2, [r2, r1]
    1906:	4282      	cmp	r2, r0
    1908:	d103      	bne.n	1912 <_sercom_get_sercom_inst_index+0x2a>
    190a:	e000      	b.n	190e <_sercom_get_sercom_inst_index+0x26>
    190c:	2300      	movs	r3, #0
    190e:	b2d8      	uxtb	r0, r3
    1910:	e003      	b.n	191a <_sercom_get_sercom_inst_index+0x32>
    1912:	3301      	adds	r3, #1
    1914:	2b06      	cmp	r3, #6
    1916:	d1f3      	bne.n	1900 <_sercom_get_sercom_inst_index+0x18>
    1918:	2000      	movs	r0, #0
    191a:	b007      	add	sp, #28
    191c:	bd30      	pop	{r4, r5, pc}
    191e:	46c0      	nop			; (mov r8, r8)
    1920:	000050c8 	.word	0x000050c8

00001924 <_sercom_default_handler>:
    1924:	4770      	bx	lr
    1926:	46c0      	nop			; (mov r8, r8)

00001928 <_sercom_set_handler>:
    1928:	b5f0      	push	{r4, r5, r6, r7, lr}
    192a:	4b0a      	ldr	r3, [pc, #40]	; (1954 <_sercom_set_handler+0x2c>)
    192c:	781b      	ldrb	r3, [r3, #0]
    192e:	2b00      	cmp	r3, #0
    1930:	d10c      	bne.n	194c <_sercom_set_handler+0x24>
    1932:	4f09      	ldr	r7, [pc, #36]	; (1958 <_sercom_set_handler+0x30>)
    1934:	4e09      	ldr	r6, [pc, #36]	; (195c <_sercom_set_handler+0x34>)
    1936:	4d0a      	ldr	r5, [pc, #40]	; (1960 <_sercom_set_handler+0x38>)
    1938:	2400      	movs	r4, #0
    193a:	51de      	str	r6, [r3, r7]
    193c:	195a      	adds	r2, r3, r5
    193e:	6014      	str	r4, [r2, #0]
    1940:	3304      	adds	r3, #4
    1942:	2b18      	cmp	r3, #24
    1944:	d1f9      	bne.n	193a <_sercom_set_handler+0x12>
    1946:	2201      	movs	r2, #1
    1948:	4b02      	ldr	r3, [pc, #8]	; (1954 <_sercom_set_handler+0x2c>)
    194a:	701a      	strb	r2, [r3, #0]
    194c:	0080      	lsls	r0, r0, #2
    194e:	4b02      	ldr	r3, [pc, #8]	; (1958 <_sercom_set_handler+0x30>)
    1950:	50c1      	str	r1, [r0, r3]
    1952:	bdf0      	pop	{r4, r5, r6, r7, pc}
    1954:	200000a2 	.word	0x200000a2
    1958:	200000a4 	.word	0x200000a4
    195c:	00001925 	.word	0x00001925
    1960:	200001cc 	.word	0x200001cc

00001964 <_sercom_get_interrupt_vector>:
    1964:	b510      	push	{r4, lr}
    1966:	b082      	sub	sp, #8
    1968:	0004      	movs	r4, r0
    196a:	2206      	movs	r2, #6
    196c:	4905      	ldr	r1, [pc, #20]	; (1984 <_sercom_get_interrupt_vector+0x20>)
    196e:	4668      	mov	r0, sp
    1970:	4b05      	ldr	r3, [pc, #20]	; (1988 <_sercom_get_interrupt_vector+0x24>)
    1972:	4798      	blx	r3
    1974:	0020      	movs	r0, r4
    1976:	4b05      	ldr	r3, [pc, #20]	; (198c <_sercom_get_interrupt_vector+0x28>)
    1978:	4798      	blx	r3
    197a:	466b      	mov	r3, sp
    197c:	5618      	ldrsb	r0, [r3, r0]
    197e:	b002      	add	sp, #8
    1980:	bd10      	pop	{r4, pc}
    1982:	46c0      	nop			; (mov r8, r8)
    1984:	000050e0 	.word	0x000050e0
    1988:	00003f29 	.word	0x00003f29
    198c:	000018e9 	.word	0x000018e9

00001990 <SERCOM0_Handler>:
    1990:	b510      	push	{r4, lr}
    1992:	4b02      	ldr	r3, [pc, #8]	; (199c <SERCOM0_Handler+0xc>)
    1994:	681b      	ldr	r3, [r3, #0]
    1996:	2000      	movs	r0, #0
    1998:	4798      	blx	r3
    199a:	bd10      	pop	{r4, pc}
    199c:	200000a4 	.word	0x200000a4

000019a0 <SERCOM1_Handler>:
    19a0:	b510      	push	{r4, lr}
    19a2:	4b02      	ldr	r3, [pc, #8]	; (19ac <SERCOM1_Handler+0xc>)
    19a4:	685b      	ldr	r3, [r3, #4]
    19a6:	2001      	movs	r0, #1
    19a8:	4798      	blx	r3
    19aa:	bd10      	pop	{r4, pc}
    19ac:	200000a4 	.word	0x200000a4

000019b0 <SERCOM2_Handler>:
    19b0:	b510      	push	{r4, lr}
    19b2:	4b02      	ldr	r3, [pc, #8]	; (19bc <SERCOM2_Handler+0xc>)
    19b4:	689b      	ldr	r3, [r3, #8]
    19b6:	2002      	movs	r0, #2
    19b8:	4798      	blx	r3
    19ba:	bd10      	pop	{r4, pc}
    19bc:	200000a4 	.word	0x200000a4

000019c0 <SERCOM3_Handler>:
    19c0:	b510      	push	{r4, lr}
    19c2:	4b02      	ldr	r3, [pc, #8]	; (19cc <SERCOM3_Handler+0xc>)
    19c4:	68db      	ldr	r3, [r3, #12]
    19c6:	2003      	movs	r0, #3
    19c8:	4798      	blx	r3
    19ca:	bd10      	pop	{r4, pc}
    19cc:	200000a4 	.word	0x200000a4

000019d0 <SERCOM4_Handler>:
    19d0:	b510      	push	{r4, lr}
    19d2:	4b02      	ldr	r3, [pc, #8]	; (19dc <SERCOM4_Handler+0xc>)
    19d4:	691b      	ldr	r3, [r3, #16]
    19d6:	2004      	movs	r0, #4
    19d8:	4798      	blx	r3
    19da:	bd10      	pop	{r4, pc}
    19dc:	200000a4 	.word	0x200000a4

000019e0 <SERCOM5_Handler>:
    19e0:	b510      	push	{r4, lr}
    19e2:	4b02      	ldr	r3, [pc, #8]	; (19ec <SERCOM5_Handler+0xc>)
    19e4:	695b      	ldr	r3, [r3, #20]
    19e6:	2005      	movs	r0, #5
    19e8:	4798      	blx	r3
    19ea:	bd10      	pop	{r4, pc}
    19ec:	200000a4 	.word	0x200000a4

000019f0 <cpu_irq_enter_critical>:
    19f0:	4b0c      	ldr	r3, [pc, #48]	; (1a24 <cpu_irq_enter_critical+0x34>)
    19f2:	681b      	ldr	r3, [r3, #0]
    19f4:	2b00      	cmp	r3, #0
    19f6:	d110      	bne.n	1a1a <cpu_irq_enter_critical+0x2a>
    19f8:	f3ef 8310 	mrs	r3, PRIMASK
    19fc:	2b00      	cmp	r3, #0
    19fe:	d109      	bne.n	1a14 <cpu_irq_enter_critical+0x24>
    1a00:	b672      	cpsid	i
    1a02:	f3bf 8f5f 	dmb	sy
    1a06:	2200      	movs	r2, #0
    1a08:	4b07      	ldr	r3, [pc, #28]	; (1a28 <cpu_irq_enter_critical+0x38>)
    1a0a:	701a      	strb	r2, [r3, #0]
    1a0c:	3201      	adds	r2, #1
    1a0e:	4b07      	ldr	r3, [pc, #28]	; (1a2c <cpu_irq_enter_critical+0x3c>)
    1a10:	701a      	strb	r2, [r3, #0]
    1a12:	e002      	b.n	1a1a <cpu_irq_enter_critical+0x2a>
    1a14:	2200      	movs	r2, #0
    1a16:	4b05      	ldr	r3, [pc, #20]	; (1a2c <cpu_irq_enter_critical+0x3c>)
    1a18:	701a      	strb	r2, [r3, #0]
    1a1a:	4a02      	ldr	r2, [pc, #8]	; (1a24 <cpu_irq_enter_critical+0x34>)
    1a1c:	6813      	ldr	r3, [r2, #0]
    1a1e:	3301      	adds	r3, #1
    1a20:	6013      	str	r3, [r2, #0]
    1a22:	4770      	bx	lr
    1a24:	200000bc 	.word	0x200000bc
    1a28:	2000001c 	.word	0x2000001c
    1a2c:	200000c0 	.word	0x200000c0

00001a30 <cpu_irq_leave_critical>:
    1a30:	4b08      	ldr	r3, [pc, #32]	; (1a54 <cpu_irq_leave_critical+0x24>)
    1a32:	681a      	ldr	r2, [r3, #0]
    1a34:	3a01      	subs	r2, #1
    1a36:	601a      	str	r2, [r3, #0]
    1a38:	681b      	ldr	r3, [r3, #0]
    1a3a:	2b00      	cmp	r3, #0
    1a3c:	d109      	bne.n	1a52 <cpu_irq_leave_critical+0x22>
    1a3e:	4b06      	ldr	r3, [pc, #24]	; (1a58 <cpu_irq_leave_critical+0x28>)
    1a40:	781b      	ldrb	r3, [r3, #0]
    1a42:	2b00      	cmp	r3, #0
    1a44:	d005      	beq.n	1a52 <cpu_irq_leave_critical+0x22>
    1a46:	2201      	movs	r2, #1
    1a48:	4b04      	ldr	r3, [pc, #16]	; (1a5c <cpu_irq_leave_critical+0x2c>)
    1a4a:	701a      	strb	r2, [r3, #0]
    1a4c:	f3bf 8f5f 	dmb	sy
    1a50:	b662      	cpsie	i
    1a52:	4770      	bx	lr
    1a54:	200000bc 	.word	0x200000bc
    1a58:	200000c0 	.word	0x200000c0
    1a5c:	2000001c 	.word	0x2000001c

00001a60 <system_board_init>:
    1a60:	b5f0      	push	{r4, r5, r6, r7, lr}
    1a62:	b083      	sub	sp, #12
    1a64:	ac01      	add	r4, sp, #4
    1a66:	2501      	movs	r5, #1
    1a68:	7065      	strb	r5, [r4, #1]
    1a6a:	2700      	movs	r7, #0
    1a6c:	70a7      	strb	r7, [r4, #2]
    1a6e:	7025      	strb	r5, [r4, #0]
    1a70:	0021      	movs	r1, r4
    1a72:	2013      	movs	r0, #19
    1a74:	4e06      	ldr	r6, [pc, #24]	; (1a90 <system_board_init+0x30>)
    1a76:	47b0      	blx	r6
    1a78:	2280      	movs	r2, #128	; 0x80
    1a7a:	0312      	lsls	r2, r2, #12
    1a7c:	4b05      	ldr	r3, [pc, #20]	; (1a94 <system_board_init+0x34>)
    1a7e:	619a      	str	r2, [r3, #24]
    1a80:	7027      	strb	r7, [r4, #0]
    1a82:	7065      	strb	r5, [r4, #1]
    1a84:	0021      	movs	r1, r4
    1a86:	201c      	movs	r0, #28
    1a88:	47b0      	blx	r6
    1a8a:	b003      	add	sp, #12
    1a8c:	bdf0      	pop	{r4, r5, r6, r7, pc}
    1a8e:	46c0      	nop			; (mov r8, r8)
    1a90:	00001a99 	.word	0x00001a99
    1a94:	41004400 	.word	0x41004400

00001a98 <port_pin_set_config>:
    1a98:	b500      	push	{lr}
    1a9a:	b083      	sub	sp, #12
    1a9c:	ab01      	add	r3, sp, #4
    1a9e:	2280      	movs	r2, #128	; 0x80
    1aa0:	701a      	strb	r2, [r3, #0]
    1aa2:	780a      	ldrb	r2, [r1, #0]
    1aa4:	705a      	strb	r2, [r3, #1]
    1aa6:	784a      	ldrb	r2, [r1, #1]
    1aa8:	709a      	strb	r2, [r3, #2]
    1aaa:	788a      	ldrb	r2, [r1, #2]
    1aac:	70da      	strb	r2, [r3, #3]
    1aae:	0019      	movs	r1, r3
    1ab0:	4b01      	ldr	r3, [pc, #4]	; (1ab8 <port_pin_set_config+0x20>)
    1ab2:	4798      	blx	r3
    1ab4:	b003      	add	sp, #12
    1ab6:	bd00      	pop	{pc}
    1ab8:	0000201d 	.word	0x0000201d

00001abc <system_clock_source_get_hz>:
    1abc:	b510      	push	{r4, lr}
    1abe:	2808      	cmp	r0, #8
    1ac0:	d803      	bhi.n	1aca <system_clock_source_get_hz+0xe>
    1ac2:	0080      	lsls	r0, r0, #2
    1ac4:	4b1b      	ldr	r3, [pc, #108]	; (1b34 <system_clock_source_get_hz+0x78>)
    1ac6:	581b      	ldr	r3, [r3, r0]
    1ac8:	469f      	mov	pc, r3
    1aca:	2000      	movs	r0, #0
    1acc:	e030      	b.n	1b30 <system_clock_source_get_hz+0x74>
    1ace:	4b1a      	ldr	r3, [pc, #104]	; (1b38 <system_clock_source_get_hz+0x7c>)
    1ad0:	6918      	ldr	r0, [r3, #16]
    1ad2:	e02d      	b.n	1b30 <system_clock_source_get_hz+0x74>
    1ad4:	4b19      	ldr	r3, [pc, #100]	; (1b3c <system_clock_source_get_hz+0x80>)
    1ad6:	6a1b      	ldr	r3, [r3, #32]
    1ad8:	059b      	lsls	r3, r3, #22
    1ada:	0f9b      	lsrs	r3, r3, #30
    1adc:	4818      	ldr	r0, [pc, #96]	; (1b40 <system_clock_source_get_hz+0x84>)
    1ade:	40d8      	lsrs	r0, r3
    1ae0:	e026      	b.n	1b30 <system_clock_source_get_hz+0x74>
    1ae2:	4b15      	ldr	r3, [pc, #84]	; (1b38 <system_clock_source_get_hz+0x7c>)
    1ae4:	6958      	ldr	r0, [r3, #20]
    1ae6:	e023      	b.n	1b30 <system_clock_source_get_hz+0x74>
    1ae8:	4b13      	ldr	r3, [pc, #76]	; (1b38 <system_clock_source_get_hz+0x7c>)
    1aea:	681b      	ldr	r3, [r3, #0]
    1aec:	2002      	movs	r0, #2
    1aee:	4018      	ands	r0, r3
    1af0:	d01e      	beq.n	1b30 <system_clock_source_get_hz+0x74>
    1af2:	4912      	ldr	r1, [pc, #72]	; (1b3c <system_clock_source_get_hz+0x80>)
    1af4:	2210      	movs	r2, #16
    1af6:	68cb      	ldr	r3, [r1, #12]
    1af8:	421a      	tst	r2, r3
    1afa:	d0fc      	beq.n	1af6 <system_clock_source_get_hz+0x3a>
    1afc:	4b0e      	ldr	r3, [pc, #56]	; (1b38 <system_clock_source_get_hz+0x7c>)
    1afe:	681b      	ldr	r3, [r3, #0]
    1b00:	075b      	lsls	r3, r3, #29
    1b02:	d514      	bpl.n	1b2e <system_clock_source_get_hz+0x72>
    1b04:	2000      	movs	r0, #0
    1b06:	4b0f      	ldr	r3, [pc, #60]	; (1b44 <system_clock_source_get_hz+0x88>)
    1b08:	4798      	blx	r3
    1b0a:	4b0b      	ldr	r3, [pc, #44]	; (1b38 <system_clock_source_get_hz+0x7c>)
    1b0c:	689b      	ldr	r3, [r3, #8]
    1b0e:	041b      	lsls	r3, r3, #16
    1b10:	0c1b      	lsrs	r3, r3, #16
    1b12:	4358      	muls	r0, r3
    1b14:	e00c      	b.n	1b30 <system_clock_source_get_hz+0x74>
    1b16:	2350      	movs	r3, #80	; 0x50
    1b18:	4a08      	ldr	r2, [pc, #32]	; (1b3c <system_clock_source_get_hz+0x80>)
    1b1a:	5cd3      	ldrb	r3, [r2, r3]
    1b1c:	2000      	movs	r0, #0
    1b1e:	075b      	lsls	r3, r3, #29
    1b20:	d506      	bpl.n	1b30 <system_clock_source_get_hz+0x74>
    1b22:	4b05      	ldr	r3, [pc, #20]	; (1b38 <system_clock_source_get_hz+0x7c>)
    1b24:	68d8      	ldr	r0, [r3, #12]
    1b26:	e003      	b.n	1b30 <system_clock_source_get_hz+0x74>
    1b28:	2080      	movs	r0, #128	; 0x80
    1b2a:	0200      	lsls	r0, r0, #8
    1b2c:	e000      	b.n	1b30 <system_clock_source_get_hz+0x74>
    1b2e:	4806      	ldr	r0, [pc, #24]	; (1b48 <system_clock_source_get_hz+0x8c>)
    1b30:	bd10      	pop	{r4, pc}
    1b32:	46c0      	nop			; (mov r8, r8)
    1b34:	000050e8 	.word	0x000050e8
    1b38:	200000c4 	.word	0x200000c4
    1b3c:	40000800 	.word	0x40000800
    1b40:	007a1200 	.word	0x007a1200
    1b44:	00001f41 	.word	0x00001f41
    1b48:	02dc6c00 	.word	0x02dc6c00

00001b4c <system_clock_source_osc8m_set_config>:
    1b4c:	b570      	push	{r4, r5, r6, lr}
    1b4e:	4c0c      	ldr	r4, [pc, #48]	; (1b80 <system_clock_source_osc8m_set_config+0x34>)
    1b50:	6a23      	ldr	r3, [r4, #32]
    1b52:	7801      	ldrb	r1, [r0, #0]
    1b54:	7885      	ldrb	r5, [r0, #2]
    1b56:	7842      	ldrb	r2, [r0, #1]
    1b58:	2001      	movs	r0, #1
    1b5a:	4002      	ands	r2, r0
    1b5c:	0192      	lsls	r2, r2, #6
    1b5e:	2640      	movs	r6, #64	; 0x40
    1b60:	43b3      	bics	r3, r6
    1b62:	4313      	orrs	r3, r2
    1b64:	0002      	movs	r2, r0
    1b66:	402a      	ands	r2, r5
    1b68:	01d2      	lsls	r2, r2, #7
    1b6a:	307f      	adds	r0, #127	; 0x7f
    1b6c:	4383      	bics	r3, r0
    1b6e:	4313      	orrs	r3, r2
    1b70:	2203      	movs	r2, #3
    1b72:	400a      	ands	r2, r1
    1b74:	0212      	lsls	r2, r2, #8
    1b76:	4903      	ldr	r1, [pc, #12]	; (1b84 <system_clock_source_osc8m_set_config+0x38>)
    1b78:	400b      	ands	r3, r1
    1b7a:	4313      	orrs	r3, r2
    1b7c:	6223      	str	r3, [r4, #32]
    1b7e:	bd70      	pop	{r4, r5, r6, pc}
    1b80:	40000800 	.word	0x40000800
    1b84:	fffffcff 	.word	0xfffffcff

00001b88 <system_clock_source_enable>:
    1b88:	2808      	cmp	r0, #8
    1b8a:	d803      	bhi.n	1b94 <system_clock_source_enable+0xc>
    1b8c:	0080      	lsls	r0, r0, #2
    1b8e:	4b25      	ldr	r3, [pc, #148]	; (1c24 <system_clock_source_enable+0x9c>)
    1b90:	581b      	ldr	r3, [r3, r0]
    1b92:	469f      	mov	pc, r3
    1b94:	2017      	movs	r0, #23
    1b96:	e044      	b.n	1c22 <system_clock_source_enable+0x9a>
    1b98:	4a23      	ldr	r2, [pc, #140]	; (1c28 <system_clock_source_enable+0xa0>)
    1b9a:	6a11      	ldr	r1, [r2, #32]
    1b9c:	2302      	movs	r3, #2
    1b9e:	430b      	orrs	r3, r1
    1ba0:	6213      	str	r3, [r2, #32]
    1ba2:	2000      	movs	r0, #0
    1ba4:	e03d      	b.n	1c22 <system_clock_source_enable+0x9a>
    1ba6:	4a20      	ldr	r2, [pc, #128]	; (1c28 <system_clock_source_enable+0xa0>)
    1ba8:	6991      	ldr	r1, [r2, #24]
    1baa:	2302      	movs	r3, #2
    1bac:	430b      	orrs	r3, r1
    1bae:	6193      	str	r3, [r2, #24]
    1bb0:	2000      	movs	r0, #0
    1bb2:	e036      	b.n	1c22 <system_clock_source_enable+0x9a>
    1bb4:	4a1c      	ldr	r2, [pc, #112]	; (1c28 <system_clock_source_enable+0xa0>)
    1bb6:	8a11      	ldrh	r1, [r2, #16]
    1bb8:	2302      	movs	r3, #2
    1bba:	430b      	orrs	r3, r1
    1bbc:	8213      	strh	r3, [r2, #16]
    1bbe:	2000      	movs	r0, #0
    1bc0:	e02f      	b.n	1c22 <system_clock_source_enable+0x9a>
    1bc2:	4a19      	ldr	r2, [pc, #100]	; (1c28 <system_clock_source_enable+0xa0>)
    1bc4:	8a91      	ldrh	r1, [r2, #20]
    1bc6:	2302      	movs	r3, #2
    1bc8:	430b      	orrs	r3, r1
    1bca:	8293      	strh	r3, [r2, #20]
    1bcc:	2000      	movs	r0, #0
    1bce:	e028      	b.n	1c22 <system_clock_source_enable+0x9a>
    1bd0:	4916      	ldr	r1, [pc, #88]	; (1c2c <system_clock_source_enable+0xa4>)
    1bd2:	680b      	ldr	r3, [r1, #0]
    1bd4:	2202      	movs	r2, #2
    1bd6:	4313      	orrs	r3, r2
    1bd8:	600b      	str	r3, [r1, #0]
    1bda:	4b13      	ldr	r3, [pc, #76]	; (1c28 <system_clock_source_enable+0xa0>)
    1bdc:	849a      	strh	r2, [r3, #36]	; 0x24
    1bde:	0019      	movs	r1, r3
    1be0:	320e      	adds	r2, #14
    1be2:	68cb      	ldr	r3, [r1, #12]
    1be4:	421a      	tst	r2, r3
    1be6:	d0fc      	beq.n	1be2 <system_clock_source_enable+0x5a>
    1be8:	4a10      	ldr	r2, [pc, #64]	; (1c2c <system_clock_source_enable+0xa4>)
    1bea:	6891      	ldr	r1, [r2, #8]
    1bec:	4b0e      	ldr	r3, [pc, #56]	; (1c28 <system_clock_source_enable+0xa0>)
    1bee:	62d9      	str	r1, [r3, #44]	; 0x2c
    1bf0:	6852      	ldr	r2, [r2, #4]
    1bf2:	629a      	str	r2, [r3, #40]	; 0x28
    1bf4:	2200      	movs	r2, #0
    1bf6:	849a      	strh	r2, [r3, #36]	; 0x24
    1bf8:	0019      	movs	r1, r3
    1bfa:	3210      	adds	r2, #16
    1bfc:	68cb      	ldr	r3, [r1, #12]
    1bfe:	421a      	tst	r2, r3
    1c00:	d0fc      	beq.n	1bfc <system_clock_source_enable+0x74>
    1c02:	4b0a      	ldr	r3, [pc, #40]	; (1c2c <system_clock_source_enable+0xa4>)
    1c04:	681b      	ldr	r3, [r3, #0]
    1c06:	b29b      	uxth	r3, r3
    1c08:	4a07      	ldr	r2, [pc, #28]	; (1c28 <system_clock_source_enable+0xa0>)
    1c0a:	8493      	strh	r3, [r2, #36]	; 0x24
    1c0c:	2000      	movs	r0, #0
    1c0e:	e008      	b.n	1c22 <system_clock_source_enable+0x9a>
    1c10:	4905      	ldr	r1, [pc, #20]	; (1c28 <system_clock_source_enable+0xa0>)
    1c12:	2244      	movs	r2, #68	; 0x44
    1c14:	5c88      	ldrb	r0, [r1, r2]
    1c16:	2302      	movs	r3, #2
    1c18:	4303      	orrs	r3, r0
    1c1a:	548b      	strb	r3, [r1, r2]
    1c1c:	2000      	movs	r0, #0
    1c1e:	e000      	b.n	1c22 <system_clock_source_enable+0x9a>
    1c20:	2000      	movs	r0, #0
    1c22:	4770      	bx	lr
    1c24:	0000510c 	.word	0x0000510c
    1c28:	40000800 	.word	0x40000800
    1c2c:	200000c4 	.word	0x200000c4

00001c30 <system_clock_init>:
    1c30:	b5f0      	push	{r4, r5, r6, r7, lr}
    1c32:	4647      	mov	r7, r8
    1c34:	b480      	push	{r7}
    1c36:	b084      	sub	sp, #16
    1c38:	22c2      	movs	r2, #194	; 0xc2
    1c3a:	00d2      	lsls	r2, r2, #3
    1c3c:	4b22      	ldr	r3, [pc, #136]	; (1cc8 <system_clock_init+0x98>)
    1c3e:	609a      	str	r2, [r3, #8]
    1c40:	4a22      	ldr	r2, [pc, #136]	; (1ccc <system_clock_init+0x9c>)
    1c42:	6853      	ldr	r3, [r2, #4]
    1c44:	211e      	movs	r1, #30
    1c46:	438b      	bics	r3, r1
    1c48:	6053      	str	r3, [r2, #4]
    1c4a:	2301      	movs	r3, #1
    1c4c:	466a      	mov	r2, sp
    1c4e:	7013      	strb	r3, [r2, #0]
    1c50:	2400      	movs	r4, #0
    1c52:	4d1f      	ldr	r5, [pc, #124]	; (1cd0 <system_clock_init+0xa0>)
    1c54:	b2e0      	uxtb	r0, r4
    1c56:	4669      	mov	r1, sp
    1c58:	47a8      	blx	r5
    1c5a:	3401      	adds	r4, #1
    1c5c:	2c25      	cmp	r4, #37	; 0x25
    1c5e:	d1f9      	bne.n	1c54 <system_clock_init+0x24>
    1c60:	a803      	add	r0, sp, #12
    1c62:	2400      	movs	r4, #0
    1c64:	7044      	strb	r4, [r0, #1]
    1c66:	2501      	movs	r5, #1
    1c68:	7085      	strb	r5, [r0, #2]
    1c6a:	7004      	strb	r4, [r0, #0]
    1c6c:	4b19      	ldr	r3, [pc, #100]	; (1cd4 <system_clock_init+0xa4>)
    1c6e:	4798      	blx	r3
    1c70:	2006      	movs	r0, #6
    1c72:	4b19      	ldr	r3, [pc, #100]	; (1cd8 <system_clock_init+0xa8>)
    1c74:	4798      	blx	r3
    1c76:	4b19      	ldr	r3, [pc, #100]	; (1cdc <system_clock_init+0xac>)
    1c78:	4798      	blx	r3
    1c7a:	9501      	str	r5, [sp, #4]
    1c7c:	466b      	mov	r3, sp
    1c7e:	705c      	strb	r4, [r3, #1]
    1c80:	2306      	movs	r3, #6
    1c82:	4698      	mov	r8, r3
    1c84:	466b      	mov	r3, sp
    1c86:	4642      	mov	r2, r8
    1c88:	701a      	strb	r2, [r3, #0]
    1c8a:	721c      	strb	r4, [r3, #8]
    1c8c:	725c      	strb	r4, [r3, #9]
    1c8e:	4669      	mov	r1, sp
    1c90:	2003      	movs	r0, #3
    1c92:	4f13      	ldr	r7, [pc, #76]	; (1ce0 <system_clock_init+0xb0>)
    1c94:	47b8      	blx	r7
    1c96:	2003      	movs	r0, #3
    1c98:	4e12      	ldr	r6, [pc, #72]	; (1ce4 <system_clock_init+0xb4>)
    1c9a:	47b0      	blx	r6
    1c9c:	4b12      	ldr	r3, [pc, #72]	; (1ce8 <system_clock_init+0xb8>)
    1c9e:	721c      	strb	r4, [r3, #8]
    1ca0:	725c      	strb	r4, [r3, #9]
    1ca2:	729c      	strb	r4, [r3, #10]
    1ca4:	72dc      	strb	r4, [r3, #11]
    1ca6:	9501      	str	r5, [sp, #4]
    1ca8:	466b      	mov	r3, sp
    1caa:	705c      	strb	r4, [r3, #1]
    1cac:	4642      	mov	r2, r8
    1cae:	701a      	strb	r2, [r3, #0]
    1cb0:	721c      	strb	r4, [r3, #8]
    1cb2:	725c      	strb	r4, [r3, #9]
    1cb4:	4669      	mov	r1, sp
    1cb6:	2000      	movs	r0, #0
    1cb8:	47b8      	blx	r7
    1cba:	2000      	movs	r0, #0
    1cbc:	47b0      	blx	r6
    1cbe:	b004      	add	sp, #16
    1cc0:	bc04      	pop	{r2}
    1cc2:	4690      	mov	r8, r2
    1cc4:	bdf0      	pop	{r4, r5, r6, r7, pc}
    1cc6:	46c0      	nop			; (mov r8, r8)
    1cc8:	40000800 	.word	0x40000800
    1ccc:	41004000 	.word	0x41004000
    1cd0:	00001f25 	.word	0x00001f25
    1cd4:	00001b4d 	.word	0x00001b4d
    1cd8:	00001b89 	.word	0x00001b89
    1cdc:	00001ced 	.word	0x00001ced
    1ce0:	00001d11 	.word	0x00001d11
    1ce4:	00001dc9 	.word	0x00001dc9
    1ce8:	40000400 	.word	0x40000400

00001cec <system_gclk_init>:
    1cec:	4a06      	ldr	r2, [pc, #24]	; (1d08 <system_gclk_init+0x1c>)
    1cee:	6991      	ldr	r1, [r2, #24]
    1cf0:	2308      	movs	r3, #8
    1cf2:	430b      	orrs	r3, r1
    1cf4:	6193      	str	r3, [r2, #24]
    1cf6:	2201      	movs	r2, #1
    1cf8:	4b04      	ldr	r3, [pc, #16]	; (1d0c <system_gclk_init+0x20>)
    1cfa:	701a      	strb	r2, [r3, #0]
    1cfc:	0019      	movs	r1, r3
    1cfe:	780b      	ldrb	r3, [r1, #0]
    1d00:	4213      	tst	r3, r2
    1d02:	d1fc      	bne.n	1cfe <system_gclk_init+0x12>
    1d04:	4770      	bx	lr
    1d06:	46c0      	nop			; (mov r8, r8)
    1d08:	40000400 	.word	0x40000400
    1d0c:	40000c00 	.word	0x40000c00

00001d10 <system_gclk_gen_set_config>:
    1d10:	b570      	push	{r4, r5, r6, lr}
    1d12:	0006      	movs	r6, r0
    1d14:	0005      	movs	r5, r0
    1d16:	780c      	ldrb	r4, [r1, #0]
    1d18:	0224      	lsls	r4, r4, #8
    1d1a:	4304      	orrs	r4, r0
    1d1c:	784b      	ldrb	r3, [r1, #1]
    1d1e:	2b00      	cmp	r3, #0
    1d20:	d002      	beq.n	1d28 <system_gclk_gen_set_config+0x18>
    1d22:	2380      	movs	r3, #128	; 0x80
    1d24:	02db      	lsls	r3, r3, #11
    1d26:	431c      	orrs	r4, r3
    1d28:	7a4b      	ldrb	r3, [r1, #9]
    1d2a:	2b00      	cmp	r3, #0
    1d2c:	d002      	beq.n	1d34 <system_gclk_gen_set_config+0x24>
    1d2e:	2380      	movs	r3, #128	; 0x80
    1d30:	031b      	lsls	r3, r3, #12
    1d32:	431c      	orrs	r4, r3
    1d34:	6848      	ldr	r0, [r1, #4]
    1d36:	2801      	cmp	r0, #1
    1d38:	d918      	bls.n	1d6c <system_gclk_gen_set_config+0x5c>
    1d3a:	1e43      	subs	r3, r0, #1
    1d3c:	4218      	tst	r0, r3
    1d3e:	d110      	bne.n	1d62 <system_gclk_gen_set_config+0x52>
    1d40:	2802      	cmp	r0, #2
    1d42:	d906      	bls.n	1d52 <system_gclk_gen_set_config+0x42>
    1d44:	2302      	movs	r3, #2
    1d46:	2200      	movs	r2, #0
    1d48:	3201      	adds	r2, #1
    1d4a:	005b      	lsls	r3, r3, #1
    1d4c:	4298      	cmp	r0, r3
    1d4e:	d8fb      	bhi.n	1d48 <system_gclk_gen_set_config+0x38>
    1d50:	e000      	b.n	1d54 <system_gclk_gen_set_config+0x44>
    1d52:	2200      	movs	r2, #0
    1d54:	0212      	lsls	r2, r2, #8
    1d56:	4332      	orrs	r2, r6
    1d58:	0015      	movs	r5, r2
    1d5a:	2380      	movs	r3, #128	; 0x80
    1d5c:	035b      	lsls	r3, r3, #13
    1d5e:	431c      	orrs	r4, r3
    1d60:	e004      	b.n	1d6c <system_gclk_gen_set_config+0x5c>
    1d62:	0205      	lsls	r5, r0, #8
    1d64:	4335      	orrs	r5, r6
    1d66:	2380      	movs	r3, #128	; 0x80
    1d68:	029b      	lsls	r3, r3, #10
    1d6a:	431c      	orrs	r4, r3
    1d6c:	7a0b      	ldrb	r3, [r1, #8]
    1d6e:	2b00      	cmp	r3, #0
    1d70:	d002      	beq.n	1d78 <system_gclk_gen_set_config+0x68>
    1d72:	2380      	movs	r3, #128	; 0x80
    1d74:	039b      	lsls	r3, r3, #14
    1d76:	431c      	orrs	r4, r3
    1d78:	4a0f      	ldr	r2, [pc, #60]	; (1db8 <system_gclk_gen_set_config+0xa8>)
    1d7a:	7853      	ldrb	r3, [r2, #1]
    1d7c:	b25b      	sxtb	r3, r3
    1d7e:	2b00      	cmp	r3, #0
    1d80:	dbfb      	blt.n	1d7a <system_gclk_gen_set_config+0x6a>
    1d82:	4b0e      	ldr	r3, [pc, #56]	; (1dbc <system_gclk_gen_set_config+0xac>)
    1d84:	4798      	blx	r3
    1d86:	4b0e      	ldr	r3, [pc, #56]	; (1dc0 <system_gclk_gen_set_config+0xb0>)
    1d88:	701e      	strb	r6, [r3, #0]
    1d8a:	4a0b      	ldr	r2, [pc, #44]	; (1db8 <system_gclk_gen_set_config+0xa8>)
    1d8c:	7853      	ldrb	r3, [r2, #1]
    1d8e:	b25b      	sxtb	r3, r3
    1d90:	2b00      	cmp	r3, #0
    1d92:	dbfb      	blt.n	1d8c <system_gclk_gen_set_config+0x7c>
    1d94:	4b08      	ldr	r3, [pc, #32]	; (1db8 <system_gclk_gen_set_config+0xa8>)
    1d96:	609d      	str	r5, [r3, #8]
    1d98:	001a      	movs	r2, r3
    1d9a:	7853      	ldrb	r3, [r2, #1]
    1d9c:	b25b      	sxtb	r3, r3
    1d9e:	2b00      	cmp	r3, #0
    1da0:	dbfb      	blt.n	1d9a <system_gclk_gen_set_config+0x8a>
    1da2:	4a05      	ldr	r2, [pc, #20]	; (1db8 <system_gclk_gen_set_config+0xa8>)
    1da4:	6851      	ldr	r1, [r2, #4]
    1da6:	2380      	movs	r3, #128	; 0x80
    1da8:	025b      	lsls	r3, r3, #9
    1daa:	400b      	ands	r3, r1
    1dac:	431c      	orrs	r4, r3
    1dae:	6054      	str	r4, [r2, #4]
    1db0:	4b04      	ldr	r3, [pc, #16]	; (1dc4 <system_gclk_gen_set_config+0xb4>)
    1db2:	4798      	blx	r3
    1db4:	bd70      	pop	{r4, r5, r6, pc}
    1db6:	46c0      	nop			; (mov r8, r8)
    1db8:	40000c00 	.word	0x40000c00
    1dbc:	000019f1 	.word	0x000019f1
    1dc0:	40000c08 	.word	0x40000c08
    1dc4:	00001a31 	.word	0x00001a31

00001dc8 <system_gclk_gen_enable>:
    1dc8:	b510      	push	{r4, lr}
    1dca:	0004      	movs	r4, r0
    1dcc:	4a0b      	ldr	r2, [pc, #44]	; (1dfc <system_gclk_gen_enable+0x34>)
    1dce:	7853      	ldrb	r3, [r2, #1]
    1dd0:	b25b      	sxtb	r3, r3
    1dd2:	2b00      	cmp	r3, #0
    1dd4:	dbfb      	blt.n	1dce <system_gclk_gen_enable+0x6>
    1dd6:	4b0a      	ldr	r3, [pc, #40]	; (1e00 <system_gclk_gen_enable+0x38>)
    1dd8:	4798      	blx	r3
    1dda:	4b0a      	ldr	r3, [pc, #40]	; (1e04 <system_gclk_gen_enable+0x3c>)
    1ddc:	701c      	strb	r4, [r3, #0]
    1dde:	4a07      	ldr	r2, [pc, #28]	; (1dfc <system_gclk_gen_enable+0x34>)
    1de0:	7853      	ldrb	r3, [r2, #1]
    1de2:	b25b      	sxtb	r3, r3
    1de4:	2b00      	cmp	r3, #0
    1de6:	dbfb      	blt.n	1de0 <system_gclk_gen_enable+0x18>
    1de8:	4a04      	ldr	r2, [pc, #16]	; (1dfc <system_gclk_gen_enable+0x34>)
    1dea:	6853      	ldr	r3, [r2, #4]
    1dec:	2180      	movs	r1, #128	; 0x80
    1dee:	0249      	lsls	r1, r1, #9
    1df0:	430b      	orrs	r3, r1
    1df2:	6053      	str	r3, [r2, #4]
    1df4:	4b04      	ldr	r3, [pc, #16]	; (1e08 <system_gclk_gen_enable+0x40>)
    1df6:	4798      	blx	r3
    1df8:	bd10      	pop	{r4, pc}
    1dfa:	46c0      	nop			; (mov r8, r8)
    1dfc:	40000c00 	.word	0x40000c00
    1e00:	000019f1 	.word	0x000019f1
    1e04:	40000c04 	.word	0x40000c04
    1e08:	00001a31 	.word	0x00001a31

00001e0c <system_gclk_gen_get_hz>:
    1e0c:	b570      	push	{r4, r5, r6, lr}
    1e0e:	0004      	movs	r4, r0
    1e10:	4a1a      	ldr	r2, [pc, #104]	; (1e7c <system_gclk_gen_get_hz+0x70>)
    1e12:	7853      	ldrb	r3, [r2, #1]
    1e14:	b25b      	sxtb	r3, r3
    1e16:	2b00      	cmp	r3, #0
    1e18:	dbfb      	blt.n	1e12 <system_gclk_gen_get_hz+0x6>
    1e1a:	4b19      	ldr	r3, [pc, #100]	; (1e80 <system_gclk_gen_get_hz+0x74>)
    1e1c:	4798      	blx	r3
    1e1e:	4b19      	ldr	r3, [pc, #100]	; (1e84 <system_gclk_gen_get_hz+0x78>)
    1e20:	701c      	strb	r4, [r3, #0]
    1e22:	4a16      	ldr	r2, [pc, #88]	; (1e7c <system_gclk_gen_get_hz+0x70>)
    1e24:	7853      	ldrb	r3, [r2, #1]
    1e26:	b25b      	sxtb	r3, r3
    1e28:	2b00      	cmp	r3, #0
    1e2a:	dbfb      	blt.n	1e24 <system_gclk_gen_get_hz+0x18>
    1e2c:	4e13      	ldr	r6, [pc, #76]	; (1e7c <system_gclk_gen_get_hz+0x70>)
    1e2e:	6870      	ldr	r0, [r6, #4]
    1e30:	04c0      	lsls	r0, r0, #19
    1e32:	0ec0      	lsrs	r0, r0, #27
    1e34:	4b14      	ldr	r3, [pc, #80]	; (1e88 <system_gclk_gen_get_hz+0x7c>)
    1e36:	4798      	blx	r3
    1e38:	0005      	movs	r5, r0
    1e3a:	4b12      	ldr	r3, [pc, #72]	; (1e84 <system_gclk_gen_get_hz+0x78>)
    1e3c:	701c      	strb	r4, [r3, #0]
    1e3e:	6876      	ldr	r6, [r6, #4]
    1e40:	02f6      	lsls	r6, r6, #11
    1e42:	0ff6      	lsrs	r6, r6, #31
    1e44:	4b11      	ldr	r3, [pc, #68]	; (1e8c <system_gclk_gen_get_hz+0x80>)
    1e46:	701c      	strb	r4, [r3, #0]
    1e48:	4a0c      	ldr	r2, [pc, #48]	; (1e7c <system_gclk_gen_get_hz+0x70>)
    1e4a:	7853      	ldrb	r3, [r2, #1]
    1e4c:	b25b      	sxtb	r3, r3
    1e4e:	2b00      	cmp	r3, #0
    1e50:	dbfb      	blt.n	1e4a <system_gclk_gen_get_hz+0x3e>
    1e52:	4b0a      	ldr	r3, [pc, #40]	; (1e7c <system_gclk_gen_get_hz+0x70>)
    1e54:	689c      	ldr	r4, [r3, #8]
    1e56:	0224      	lsls	r4, r4, #8
    1e58:	0c24      	lsrs	r4, r4, #16
    1e5a:	4b0d      	ldr	r3, [pc, #52]	; (1e90 <system_gclk_gen_get_hz+0x84>)
    1e5c:	4798      	blx	r3
    1e5e:	2e00      	cmp	r6, #0
    1e60:	d107      	bne.n	1e72 <system_gclk_gen_get_hz+0x66>
    1e62:	2c01      	cmp	r4, #1
    1e64:	d907      	bls.n	1e76 <system_gclk_gen_get_hz+0x6a>
    1e66:	0021      	movs	r1, r4
    1e68:	0028      	movs	r0, r5
    1e6a:	4b0a      	ldr	r3, [pc, #40]	; (1e94 <system_gclk_gen_get_hz+0x88>)
    1e6c:	4798      	blx	r3
    1e6e:	0005      	movs	r5, r0
    1e70:	e001      	b.n	1e76 <system_gclk_gen_get_hz+0x6a>
    1e72:	3401      	adds	r4, #1
    1e74:	40e5      	lsrs	r5, r4
    1e76:	0028      	movs	r0, r5
    1e78:	bd70      	pop	{r4, r5, r6, pc}
    1e7a:	46c0      	nop			; (mov r8, r8)
    1e7c:	40000c00 	.word	0x40000c00
    1e80:	000019f1 	.word	0x000019f1
    1e84:	40000c04 	.word	0x40000c04
    1e88:	00001abd 	.word	0x00001abd
    1e8c:	40000c08 	.word	0x40000c08
    1e90:	00001a31 	.word	0x00001a31
    1e94:	00002435 	.word	0x00002435

00001e98 <system_gclk_chan_enable>:
    1e98:	b510      	push	{r4, lr}
    1e9a:	0004      	movs	r4, r0
    1e9c:	4b06      	ldr	r3, [pc, #24]	; (1eb8 <system_gclk_chan_enable+0x20>)
    1e9e:	4798      	blx	r3
    1ea0:	4b06      	ldr	r3, [pc, #24]	; (1ebc <system_gclk_chan_enable+0x24>)
    1ea2:	701c      	strb	r4, [r3, #0]
    1ea4:	4a06      	ldr	r2, [pc, #24]	; (1ec0 <system_gclk_chan_enable+0x28>)
    1ea6:	8851      	ldrh	r1, [r2, #2]
    1ea8:	2380      	movs	r3, #128	; 0x80
    1eaa:	01db      	lsls	r3, r3, #7
    1eac:	430b      	orrs	r3, r1
    1eae:	8053      	strh	r3, [r2, #2]
    1eb0:	4b04      	ldr	r3, [pc, #16]	; (1ec4 <system_gclk_chan_enable+0x2c>)
    1eb2:	4798      	blx	r3
    1eb4:	bd10      	pop	{r4, pc}
    1eb6:	46c0      	nop			; (mov r8, r8)
    1eb8:	000019f1 	.word	0x000019f1
    1ebc:	40000c02 	.word	0x40000c02
    1ec0:	40000c00 	.word	0x40000c00
    1ec4:	00001a31 	.word	0x00001a31

00001ec8 <system_gclk_chan_disable>:
    1ec8:	b510      	push	{r4, lr}
    1eca:	0004      	movs	r4, r0
    1ecc:	4b0f      	ldr	r3, [pc, #60]	; (1f0c <system_gclk_chan_disable+0x44>)
    1ece:	4798      	blx	r3
    1ed0:	4b0f      	ldr	r3, [pc, #60]	; (1f10 <system_gclk_chan_disable+0x48>)
    1ed2:	701c      	strb	r4, [r3, #0]
    1ed4:	4b0f      	ldr	r3, [pc, #60]	; (1f14 <system_gclk_chan_disable+0x4c>)
    1ed6:	885a      	ldrh	r2, [r3, #2]
    1ed8:	0512      	lsls	r2, r2, #20
    1eda:	0f10      	lsrs	r0, r2, #28
    1edc:	8859      	ldrh	r1, [r3, #2]
    1ede:	4a0e      	ldr	r2, [pc, #56]	; (1f18 <system_gclk_chan_disable+0x50>)
    1ee0:	400a      	ands	r2, r1
    1ee2:	805a      	strh	r2, [r3, #2]
    1ee4:	8859      	ldrh	r1, [r3, #2]
    1ee6:	4a0d      	ldr	r2, [pc, #52]	; (1f1c <system_gclk_chan_disable+0x54>)
    1ee8:	400a      	ands	r2, r1
    1eea:	805a      	strh	r2, [r3, #2]
    1eec:	0019      	movs	r1, r3
    1eee:	2280      	movs	r2, #128	; 0x80
    1ef0:	01d2      	lsls	r2, r2, #7
    1ef2:	884b      	ldrh	r3, [r1, #2]
    1ef4:	4213      	tst	r3, r2
    1ef6:	d1fc      	bne.n	1ef2 <system_gclk_chan_disable+0x2a>
    1ef8:	4906      	ldr	r1, [pc, #24]	; (1f14 <system_gclk_chan_disable+0x4c>)
    1efa:	884c      	ldrh	r4, [r1, #2]
    1efc:	0202      	lsls	r2, r0, #8
    1efe:	4b06      	ldr	r3, [pc, #24]	; (1f18 <system_gclk_chan_disable+0x50>)
    1f00:	4023      	ands	r3, r4
    1f02:	4313      	orrs	r3, r2
    1f04:	804b      	strh	r3, [r1, #2]
    1f06:	4b06      	ldr	r3, [pc, #24]	; (1f20 <system_gclk_chan_disable+0x58>)
    1f08:	4798      	blx	r3
    1f0a:	bd10      	pop	{r4, pc}
    1f0c:	000019f1 	.word	0x000019f1
    1f10:	40000c02 	.word	0x40000c02
    1f14:	40000c00 	.word	0x40000c00
    1f18:	fffff0ff 	.word	0xfffff0ff
    1f1c:	ffffbfff 	.word	0xffffbfff
    1f20:	00001a31 	.word	0x00001a31

00001f24 <system_gclk_chan_set_config>:
    1f24:	b510      	push	{r4, lr}
    1f26:	780c      	ldrb	r4, [r1, #0]
    1f28:	0224      	lsls	r4, r4, #8
    1f2a:	4304      	orrs	r4, r0
    1f2c:	4b02      	ldr	r3, [pc, #8]	; (1f38 <system_gclk_chan_set_config+0x14>)
    1f2e:	4798      	blx	r3
    1f30:	b2a4      	uxth	r4, r4
    1f32:	4b02      	ldr	r3, [pc, #8]	; (1f3c <system_gclk_chan_set_config+0x18>)
    1f34:	805c      	strh	r4, [r3, #2]
    1f36:	bd10      	pop	{r4, pc}
    1f38:	00001ec9 	.word	0x00001ec9
    1f3c:	40000c00 	.word	0x40000c00

00001f40 <system_gclk_chan_get_hz>:
    1f40:	b510      	push	{r4, lr}
    1f42:	0004      	movs	r4, r0
    1f44:	4b06      	ldr	r3, [pc, #24]	; (1f60 <system_gclk_chan_get_hz+0x20>)
    1f46:	4798      	blx	r3
    1f48:	4b06      	ldr	r3, [pc, #24]	; (1f64 <system_gclk_chan_get_hz+0x24>)
    1f4a:	701c      	strb	r4, [r3, #0]
    1f4c:	4b06      	ldr	r3, [pc, #24]	; (1f68 <system_gclk_chan_get_hz+0x28>)
    1f4e:	885c      	ldrh	r4, [r3, #2]
    1f50:	0524      	lsls	r4, r4, #20
    1f52:	0f24      	lsrs	r4, r4, #28
    1f54:	4b05      	ldr	r3, [pc, #20]	; (1f6c <system_gclk_chan_get_hz+0x2c>)
    1f56:	4798      	blx	r3
    1f58:	0020      	movs	r0, r4
    1f5a:	4b05      	ldr	r3, [pc, #20]	; (1f70 <system_gclk_chan_get_hz+0x30>)
    1f5c:	4798      	blx	r3
    1f5e:	bd10      	pop	{r4, pc}
    1f60:	000019f1 	.word	0x000019f1
    1f64:	40000c02 	.word	0x40000c02
    1f68:	40000c00 	.word	0x40000c00
    1f6c:	00001a31 	.word	0x00001a31
    1f70:	00001e0d 	.word	0x00001e0d

00001f74 <_system_pinmux_config>:
    1f74:	b530      	push	{r4, r5, lr}
    1f76:	78d3      	ldrb	r3, [r2, #3]
    1f78:	2b00      	cmp	r3, #0
    1f7a:	d11e      	bne.n	1fba <_system_pinmux_config+0x46>
    1f7c:	7813      	ldrb	r3, [r2, #0]
    1f7e:	2b80      	cmp	r3, #128	; 0x80
    1f80:	d004      	beq.n	1f8c <_system_pinmux_config+0x18>
    1f82:	061b      	lsls	r3, r3, #24
    1f84:	2480      	movs	r4, #128	; 0x80
    1f86:	0264      	lsls	r4, r4, #9
    1f88:	4323      	orrs	r3, r4
    1f8a:	e000      	b.n	1f8e <_system_pinmux_config+0x1a>
    1f8c:	2300      	movs	r3, #0
    1f8e:	7854      	ldrb	r4, [r2, #1]
    1f90:	2502      	movs	r5, #2
    1f92:	43ac      	bics	r4, r5
    1f94:	d10a      	bne.n	1fac <_system_pinmux_config+0x38>
    1f96:	7894      	ldrb	r4, [r2, #2]
    1f98:	2c00      	cmp	r4, #0
    1f9a:	d103      	bne.n	1fa4 <_system_pinmux_config+0x30>
    1f9c:	2480      	movs	r4, #128	; 0x80
    1f9e:	02a4      	lsls	r4, r4, #10
    1fa0:	4323      	orrs	r3, r4
    1fa2:	e002      	b.n	1faa <_system_pinmux_config+0x36>
    1fa4:	24c0      	movs	r4, #192	; 0xc0
    1fa6:	02e4      	lsls	r4, r4, #11
    1fa8:	4323      	orrs	r3, r4
    1faa:	6041      	str	r1, [r0, #4]
    1fac:	7854      	ldrb	r4, [r2, #1]
    1fae:	3c01      	subs	r4, #1
    1fb0:	2c01      	cmp	r4, #1
    1fb2:	d812      	bhi.n	1fda <_system_pinmux_config+0x66>
    1fb4:	4c18      	ldr	r4, [pc, #96]	; (2018 <STACK_SIZE+0x18>)
    1fb6:	4023      	ands	r3, r4
    1fb8:	e00f      	b.n	1fda <_system_pinmux_config+0x66>
    1fba:	6041      	str	r1, [r0, #4]
    1fbc:	040b      	lsls	r3, r1, #16
    1fbe:	0c1b      	lsrs	r3, r3, #16
    1fc0:	24a0      	movs	r4, #160	; 0xa0
    1fc2:	05e4      	lsls	r4, r4, #23
    1fc4:	4323      	orrs	r3, r4
    1fc6:	6283      	str	r3, [r0, #40]	; 0x28
    1fc8:	0c0b      	lsrs	r3, r1, #16
    1fca:	24d0      	movs	r4, #208	; 0xd0
    1fcc:	0624      	lsls	r4, r4, #24
    1fce:	4323      	orrs	r3, r4
    1fd0:	6283      	str	r3, [r0, #40]	; 0x28
    1fd2:	78d3      	ldrb	r3, [r2, #3]
    1fd4:	2b00      	cmp	r3, #0
    1fd6:	d018      	beq.n	200a <STACK_SIZE+0xa>
    1fd8:	e01c      	b.n	2014 <STACK_SIZE+0x14>
    1fda:	040c      	lsls	r4, r1, #16
    1fdc:	0c24      	lsrs	r4, r4, #16
    1fde:	25a0      	movs	r5, #160	; 0xa0
    1fe0:	05ed      	lsls	r5, r5, #23
    1fe2:	432c      	orrs	r4, r5
    1fe4:	431c      	orrs	r4, r3
    1fe6:	6284      	str	r4, [r0, #40]	; 0x28
    1fe8:	0c0c      	lsrs	r4, r1, #16
    1fea:	25d0      	movs	r5, #208	; 0xd0
    1fec:	062d      	lsls	r5, r5, #24
    1fee:	432c      	orrs	r4, r5
    1ff0:	431c      	orrs	r4, r3
    1ff2:	6284      	str	r4, [r0, #40]	; 0x28
    1ff4:	78d4      	ldrb	r4, [r2, #3]
    1ff6:	2c00      	cmp	r4, #0
    1ff8:	d10c      	bne.n	2014 <STACK_SIZE+0x14>
    1ffa:	035b      	lsls	r3, r3, #13
    1ffc:	d505      	bpl.n	200a <STACK_SIZE+0xa>
    1ffe:	7893      	ldrb	r3, [r2, #2]
    2000:	2b01      	cmp	r3, #1
    2002:	d101      	bne.n	2008 <STACK_SIZE+0x8>
    2004:	6181      	str	r1, [r0, #24]
    2006:	e000      	b.n	200a <STACK_SIZE+0xa>
    2008:	6141      	str	r1, [r0, #20]
    200a:	7853      	ldrb	r3, [r2, #1]
    200c:	3b01      	subs	r3, #1
    200e:	2b01      	cmp	r3, #1
    2010:	d800      	bhi.n	2014 <STACK_SIZE+0x14>
    2012:	6081      	str	r1, [r0, #8]
    2014:	bd30      	pop	{r4, r5, pc}
    2016:	46c0      	nop			; (mov r8, r8)
    2018:	fffbffff 	.word	0xfffbffff

0000201c <system_pinmux_pin_set_config>:
    201c:	b510      	push	{r4, lr}
    201e:	0003      	movs	r3, r0
    2020:	000a      	movs	r2, r1
    2022:	09c1      	lsrs	r1, r0, #7
    2024:	2000      	movs	r0, #0
    2026:	2900      	cmp	r1, #0
    2028:	d104      	bne.n	2034 <system_pinmux_pin_set_config+0x18>
    202a:	0958      	lsrs	r0, r3, #5
    202c:	01c0      	lsls	r0, r0, #7
    202e:	4905      	ldr	r1, [pc, #20]	; (2044 <system_pinmux_pin_set_config+0x28>)
    2030:	468c      	mov	ip, r1
    2032:	4460      	add	r0, ip
    2034:	211f      	movs	r1, #31
    2036:	400b      	ands	r3, r1
    2038:	391e      	subs	r1, #30
    203a:	4099      	lsls	r1, r3
    203c:	4b02      	ldr	r3, [pc, #8]	; (2048 <system_pinmux_pin_set_config+0x2c>)
    203e:	4798      	blx	r3
    2040:	bd10      	pop	{r4, pc}
    2042:	46c0      	nop			; (mov r8, r8)
    2044:	41004400 	.word	0x41004400
    2048:	00001f75 	.word	0x00001f75

0000204c <_system_dummy_init>:
    204c:	4770      	bx	lr
    204e:	46c0      	nop			; (mov r8, r8)

00002050 <system_init>:
    2050:	b510      	push	{r4, lr}
    2052:	4b05      	ldr	r3, [pc, #20]	; (2068 <system_init+0x18>)
    2054:	4798      	blx	r3
    2056:	4b05      	ldr	r3, [pc, #20]	; (206c <system_init+0x1c>)
    2058:	4798      	blx	r3
    205a:	4b05      	ldr	r3, [pc, #20]	; (2070 <system_init+0x20>)
    205c:	4798      	blx	r3
    205e:	4b05      	ldr	r3, [pc, #20]	; (2074 <system_init+0x24>)
    2060:	4798      	blx	r3
    2062:	4b05      	ldr	r3, [pc, #20]	; (2078 <system_init+0x28>)
    2064:	4798      	blx	r3
    2066:	bd10      	pop	{r4, pc}
    2068:	00001c31 	.word	0x00001c31
    206c:	00001a61 	.word	0x00001a61
    2070:	000009f1 	.word	0x000009f1
    2074:	00000a2d 	.word	0x00000a2d
    2078:	0000204d 	.word	0x0000204d

0000207c <Dummy_Handler>:
    207c:	e7fe      	b.n	207c <Dummy_Handler>
    207e:	46c0      	nop			; (mov r8, r8)

00002080 <Reset_Handler>:
    2080:	b570      	push	{r4, r5, r6, lr}
    2082:	4b2e      	ldr	r3, [pc, #184]	; (213c <Reset_Handler+0xbc>)
    2084:	4a2e      	ldr	r2, [pc, #184]	; (2140 <Reset_Handler+0xc0>)
    2086:	429a      	cmp	r2, r3
    2088:	d003      	beq.n	2092 <Reset_Handler+0x12>
    208a:	4b2e      	ldr	r3, [pc, #184]	; (2144 <Reset_Handler+0xc4>)
    208c:	4a2b      	ldr	r2, [pc, #172]	; (213c <Reset_Handler+0xbc>)
    208e:	429a      	cmp	r2, r3
    2090:	d304      	bcc.n	209c <Reset_Handler+0x1c>
    2092:	4b2d      	ldr	r3, [pc, #180]	; (2148 <Reset_Handler+0xc8>)
    2094:	4a2d      	ldr	r2, [pc, #180]	; (214c <Reset_Handler+0xcc>)
    2096:	429a      	cmp	r2, r3
    2098:	d310      	bcc.n	20bc <Reset_Handler+0x3c>
    209a:	e01e      	b.n	20da <Reset_Handler+0x5a>
    209c:	4a2c      	ldr	r2, [pc, #176]	; (2150 <Reset_Handler+0xd0>)
    209e:	4b29      	ldr	r3, [pc, #164]	; (2144 <Reset_Handler+0xc4>)
    20a0:	3303      	adds	r3, #3
    20a2:	1a9b      	subs	r3, r3, r2
    20a4:	089b      	lsrs	r3, r3, #2
    20a6:	3301      	adds	r3, #1
    20a8:	009b      	lsls	r3, r3, #2
    20aa:	2200      	movs	r2, #0
    20ac:	4823      	ldr	r0, [pc, #140]	; (213c <Reset_Handler+0xbc>)
    20ae:	4924      	ldr	r1, [pc, #144]	; (2140 <Reset_Handler+0xc0>)
    20b0:	588c      	ldr	r4, [r1, r2]
    20b2:	5084      	str	r4, [r0, r2]
    20b4:	3204      	adds	r2, #4
    20b6:	429a      	cmp	r2, r3
    20b8:	d1fa      	bne.n	20b0 <Reset_Handler+0x30>
    20ba:	e7ea      	b.n	2092 <Reset_Handler+0x12>
    20bc:	4a25      	ldr	r2, [pc, #148]	; (2154 <Reset_Handler+0xd4>)
    20be:	4b22      	ldr	r3, [pc, #136]	; (2148 <Reset_Handler+0xc8>)
    20c0:	3303      	adds	r3, #3
    20c2:	1a9b      	subs	r3, r3, r2
    20c4:	089b      	lsrs	r3, r3, #2
    20c6:	3301      	adds	r3, #1
    20c8:	009b      	lsls	r3, r3, #2
    20ca:	2200      	movs	r2, #0
    20cc:	481f      	ldr	r0, [pc, #124]	; (214c <Reset_Handler+0xcc>)
    20ce:	2100      	movs	r1, #0
    20d0:	1814      	adds	r4, r2, r0
    20d2:	6021      	str	r1, [r4, #0]
    20d4:	3204      	adds	r2, #4
    20d6:	429a      	cmp	r2, r3
    20d8:	d1fa      	bne.n	20d0 <Reset_Handler+0x50>
    20da:	4a1f      	ldr	r2, [pc, #124]	; (2158 <Reset_Handler+0xd8>)
    20dc:	21ff      	movs	r1, #255	; 0xff
    20de:	4b1f      	ldr	r3, [pc, #124]	; (215c <Reset_Handler+0xdc>)
    20e0:	438b      	bics	r3, r1
    20e2:	6093      	str	r3, [r2, #8]
    20e4:	39fd      	subs	r1, #253	; 0xfd
    20e6:	2390      	movs	r3, #144	; 0x90
    20e8:	005b      	lsls	r3, r3, #1
    20ea:	4a1d      	ldr	r2, [pc, #116]	; (2160 <Reset_Handler+0xe0>)
    20ec:	50d1      	str	r1, [r2, r3]
    20ee:	481d      	ldr	r0, [pc, #116]	; (2164 <Reset_Handler+0xe4>)
    20f0:	78c3      	ldrb	r3, [r0, #3]
    20f2:	2403      	movs	r4, #3
    20f4:	43a3      	bics	r3, r4
    20f6:	2202      	movs	r2, #2
    20f8:	4313      	orrs	r3, r2
    20fa:	70c3      	strb	r3, [r0, #3]
    20fc:	78c3      	ldrb	r3, [r0, #3]
    20fe:	260c      	movs	r6, #12
    2100:	43b3      	bics	r3, r6
    2102:	2108      	movs	r1, #8
    2104:	430b      	orrs	r3, r1
    2106:	70c3      	strb	r3, [r0, #3]
    2108:	4b17      	ldr	r3, [pc, #92]	; (2168 <Reset_Handler+0xe8>)
    210a:	7b98      	ldrb	r0, [r3, #14]
    210c:	2530      	movs	r5, #48	; 0x30
    210e:	43a8      	bics	r0, r5
    2110:	0005      	movs	r5, r0
    2112:	2020      	movs	r0, #32
    2114:	4328      	orrs	r0, r5
    2116:	7398      	strb	r0, [r3, #14]
    2118:	7b98      	ldrb	r0, [r3, #14]
    211a:	43b0      	bics	r0, r6
    211c:	4301      	orrs	r1, r0
    211e:	7399      	strb	r1, [r3, #14]
    2120:	7b99      	ldrb	r1, [r3, #14]
    2122:	43a1      	bics	r1, r4
    2124:	430a      	orrs	r2, r1
    2126:	739a      	strb	r2, [r3, #14]
    2128:	4a10      	ldr	r2, [pc, #64]	; (216c <Reset_Handler+0xec>)
    212a:	6851      	ldr	r1, [r2, #4]
    212c:	2380      	movs	r3, #128	; 0x80
    212e:	430b      	orrs	r3, r1
    2130:	6053      	str	r3, [r2, #4]
    2132:	4b0f      	ldr	r3, [pc, #60]	; (2170 <Reset_Handler+0xf0>)
    2134:	4798      	blx	r3
    2136:	4b0f      	ldr	r3, [pc, #60]	; (2174 <Reset_Handler+0xf4>)
    2138:	4798      	blx	r3
    213a:	e7fe      	b.n	213a <Reset_Handler+0xba>
    213c:	20000000 	.word	0x20000000
    2140:	000052b0 	.word	0x000052b0
    2144:	20000084 	.word	0x20000084
    2148:	2000021c 	.word	0x2000021c
    214c:	20000084 	.word	0x20000084
    2150:	20000004 	.word	0x20000004
    2154:	20000088 	.word	0x20000088
    2158:	e000ed00 	.word	0xe000ed00
    215c:	00000000 	.word	0x00000000
    2160:	41007000 	.word	0x41007000
    2164:	41005000 	.word	0x41005000
    2168:	41004800 	.word	0x41004800
    216c:	41004000 	.word	0x41004000
    2170:	00003edd 	.word	0x00003edd
    2174:	00002361 	.word	0x00002361

00002178 <_sbrk>:
    2178:	0003      	movs	r3, r0
    217a:	4a06      	ldr	r2, [pc, #24]	; (2194 <_sbrk+0x1c>)
    217c:	6812      	ldr	r2, [r2, #0]
    217e:	2a00      	cmp	r2, #0
    2180:	d102      	bne.n	2188 <_sbrk+0x10>
    2182:	4905      	ldr	r1, [pc, #20]	; (2198 <_sbrk+0x20>)
    2184:	4a03      	ldr	r2, [pc, #12]	; (2194 <_sbrk+0x1c>)
    2186:	6011      	str	r1, [r2, #0]
    2188:	4a02      	ldr	r2, [pc, #8]	; (2194 <_sbrk+0x1c>)
    218a:	6810      	ldr	r0, [r2, #0]
    218c:	18c3      	adds	r3, r0, r3
    218e:	6013      	str	r3, [r2, #0]
    2190:	4770      	bx	lr
    2192:	46c0      	nop			; (mov r8, r8)
    2194:	200000dc 	.word	0x200000dc
    2198:	20002220 	.word	0x20002220

0000219c <_close>:
    219c:	2001      	movs	r0, #1
    219e:	4240      	negs	r0, r0
    21a0:	4770      	bx	lr
    21a2:	46c0      	nop			; (mov r8, r8)

000021a4 <_fstat>:
    21a4:	2380      	movs	r3, #128	; 0x80
    21a6:	019b      	lsls	r3, r3, #6
    21a8:	604b      	str	r3, [r1, #4]
    21aa:	2000      	movs	r0, #0
    21ac:	4770      	bx	lr
    21ae:	46c0      	nop			; (mov r8, r8)

000021b0 <_isatty>:
    21b0:	2001      	movs	r0, #1
    21b2:	4770      	bx	lr

000021b4 <_lseek>:
    21b4:	2000      	movs	r0, #0
    21b6:	4770      	bx	lr

000021b8 <line_sensor_init>:
    21b8:	b570      	push	{r4, r5, r6, lr}
    21ba:	b084      	sub	sp, #16
    21bc:	a903      	add	r1, sp, #12
    21be:	2400      	movs	r4, #0
    21c0:	700c      	strb	r4, [r1, #0]
    21c2:	708c      	strb	r4, [r1, #2]
    21c4:	2602      	movs	r6, #2
    21c6:	704e      	strb	r6, [r1, #1]
    21c8:	2008      	movs	r0, #8
    21ca:	4d0f      	ldr	r5, [pc, #60]	; (2208 <line_sensor_init+0x50>)
    21cc:	47a8      	blx	r5
    21ce:	a902      	add	r1, sp, #8
    21d0:	700c      	strb	r4, [r1, #0]
    21d2:	708c      	strb	r4, [r1, #2]
    21d4:	704e      	strb	r6, [r1, #1]
    21d6:	200e      	movs	r0, #14
    21d8:	47a8      	blx	r5
    21da:	a901      	add	r1, sp, #4
    21dc:	700c      	strb	r4, [r1, #0]
    21de:	708c      	strb	r4, [r1, #2]
    21e0:	704e      	strb	r6, [r1, #1]
    21e2:	2016      	movs	r0, #22
    21e4:	47a8      	blx	r5
    21e6:	4b09      	ldr	r3, [pc, #36]	; (220c <line_sensor_init+0x54>)
    21e8:	6a1a      	ldr	r2, [r3, #32]
    21ea:	4909      	ldr	r1, [pc, #36]	; (2210 <line_sensor_init+0x58>)
    21ec:	0a12      	lsrs	r2, r2, #8
    21ee:	2001      	movs	r0, #1
    21f0:	4002      	ands	r2, r0
    21f2:	700a      	strb	r2, [r1, #0]
    21f4:	6a1a      	ldr	r2, [r3, #32]
    21f6:	0b92      	lsrs	r2, r2, #14
    21f8:	4002      	ands	r2, r0
    21fa:	704a      	strb	r2, [r1, #1]
    21fc:	6a1b      	ldr	r3, [r3, #32]
    21fe:	0d9b      	lsrs	r3, r3, #22
    2200:	4003      	ands	r3, r0
    2202:	708b      	strb	r3, [r1, #2]
    2204:	b004      	add	sp, #16
    2206:	bd70      	pop	{r4, r5, r6, pc}
    2208:	00001a99 	.word	0x00001a99
    220c:	41004400 	.word	0x41004400
    2210:	200000e0 	.word	0x200000e0

00002214 <usart_serial_getchar>:
 * \param[out]    c       Destination for the read character.
 */
static inline void usart_serial_getchar(
		struct usart_module *const module,
		uint8_t *c)
{
    2214:	b570      	push	{r4, r5, r6, lr}
    2216:	b082      	sub	sp, #8
    2218:	0005      	movs	r5, r0
    221a:	000e      	movs	r6, r1
	uint16_t temp = 0;
    221c:	2200      	movs	r2, #0
    221e:	466b      	mov	r3, sp
    2220:	80da      	strh	r2, [r3, #6]

	while(STATUS_OK != usart_read_wait(module, &temp));
    2222:	4c06      	ldr	r4, [pc, #24]	; (223c <usart_serial_getchar+0x28>)
    2224:	466b      	mov	r3, sp
    2226:	1d99      	adds	r1, r3, #6
    2228:	0028      	movs	r0, r5
    222a:	47a0      	blx	r4
    222c:	2800      	cmp	r0, #0
    222e:	d1f9      	bne.n	2224 <usart_serial_getchar+0x10>

	*c = temp;
    2230:	466b      	mov	r3, sp
    2232:	3306      	adds	r3, #6
    2234:	881b      	ldrh	r3, [r3, #0]
    2236:	7033      	strb	r3, [r6, #0]
}
    2238:	b002      	add	sp, #8
    223a:	bd70      	pop	{r4, r5, r6, pc}
    223c:	00001255 	.word	0x00001255

00002240 <usart_serial_putchar>:
 * \return Status code
 */
static inline enum status_code usart_serial_putchar(
		struct usart_module *const module,
		uint8_t c)
{
    2240:	b570      	push	{r4, r5, r6, lr}
    2242:	0005      	movs	r5, r0
	while(STATUS_OK !=usart_write_wait(module, c));
    2244:	b28c      	uxth	r4, r1
    2246:	4e03      	ldr	r6, [pc, #12]	; (2254 <usart_serial_putchar+0x14>)
    2248:	0021      	movs	r1, r4
    224a:	0028      	movs	r0, r5
    224c:	47b0      	blx	r6
    224e:	2800      	cmp	r0, #0
    2250:	d1fa      	bne.n	2248 <usart_serial_putchar+0x8>

	return STATUS_OK;
}
    2252:	bd70      	pop	{r4, r5, r6, pc}
    2254:	00001229 	.word	0x00001229

00002258 <configure_usart>:
	
}

//usart---------------------------------------------------------------------------
void configure_usart(void)
{
    2258:	b530      	push	{r4, r5, lr}
    225a:	b091      	sub	sp, #68	; 0x44
{
	/* Sanity check arguments */
	Assert(config);

	/* Set default config in the config struct */
	config->data_order       = USART_DATAORDER_LSB;
    225c:	2380      	movs	r3, #128	; 0x80
    225e:	05db      	lsls	r3, r3, #23
    2260:	9300      	str	r3, [sp, #0]
	config->transfer_mode    = USART_TRANSFER_ASYNCHRONOUSLY;
    2262:	2300      	movs	r3, #0
    2264:	9301      	str	r3, [sp, #4]
	config->parity           = USART_PARITY_NONE;
    2266:	22ff      	movs	r2, #255	; 0xff
    2268:	4669      	mov	r1, sp
    226a:	810a      	strh	r2, [r1, #8]
	config->stopbits         = USART_STOPBITS_1;
    226c:	2200      	movs	r2, #0
    226e:	728b      	strb	r3, [r1, #10]
	config->character_size   = USART_CHARACTER_SIZE_8BIT;
    2270:	72cb      	strb	r3, [r1, #11]
	config->baudrate         = 9600;
    2272:	2196      	movs	r1, #150	; 0x96
    2274:	0189      	lsls	r1, r1, #6
    2276:	9108      	str	r1, [sp, #32]
	config->receiver_enable  = true;
    2278:	2101      	movs	r1, #1
    227a:	2024      	movs	r0, #36	; 0x24
    227c:	466c      	mov	r4, sp
    227e:	5421      	strb	r1, [r4, r0]
	config->transmitter_enable = true;
    2280:	3001      	adds	r0, #1
    2282:	5421      	strb	r1, [r4, r0]
	config->clock_polarity_inverted = false;
    2284:	3125      	adds	r1, #37	; 0x25
    2286:	5463      	strb	r3, [r4, r1]
	config->use_external_clock = false;
    2288:	3101      	adds	r1, #1
    228a:	5463      	strb	r3, [r4, r1]
	config->ext_clock_freq   = 0;
    228c:	930a      	str	r3, [sp, #40]	; 0x28
	config->mux_setting      = USART_RX_1_TX_2_XCK_3;
	config->run_in_standby   = false;
    228e:	3105      	adds	r1, #5
    2290:	5463      	strb	r3, [r4, r1]
	config->generator_source = GCLK_GENERATOR_0;
    2292:	3101      	adds	r1, #1
    2294:	5463      	strb	r3, [r4, r1]
	config->pinmux_pad0      = PINMUX_DEFAULT;
	config->pinmux_pad1      = PINMUX_DEFAULT;
	config->pinmux_pad2      = PINMUX_DEFAULT;
	config->pinmux_pad3      = PINMUX_DEFAULT;
#ifdef FEATURE_USART_OVER_SAMPLE
	config->sample_adjustment     = USART_SAMPLE_ADJUSTMENT_7_8_9;
    2296:	9305      	str	r3, [sp, #20]
	config->sample_rate           = USART_SAMPLE_RATE_16X_ARITHMETIC;
    2298:	8223      	strh	r3, [r4, #16]
#endif
#ifdef FEATURE_USART_LIN_SLAVE
	config->lin_slave_enable      = false;
    229a:	76e3      	strb	r3, [r4, #27]
	config->lin_header_delay = LIN_MASTER_HEADER_DELAY_0;
	config->lin_break_length = LIN_MASTER_BREAK_LENGTH_13_BIT;
#endif

#ifdef FEATURE_USART_IMMEDIATE_BUFFER_OVERFLOW_NOTIFICATION
	config->immediate_buffer_overflow_notification  = false;
    229c:	7622      	strb	r2, [r4, #24]
#endif
#ifdef FEATURE_USART_START_FRAME_DECTION
	config->start_frame_detection_enable            = false;
    229e:	7722      	strb	r2, [r4, #28]
#endif
#ifdef FEATURE_USART_IRDA
	config->encoding_format_enable                  = false;
    22a0:	7662      	strb	r2, [r4, #25]
	config->receive_pulse_length                    = 19;
    22a2:	2313      	movs	r3, #19
    22a4:	76a3      	strb	r3, [r4, #26]
	config->iso7816_config.inhibit_nack             = ISO7816_INHIBIT_NACK_DISABLE;
	config->iso7816_config.successive_recv_nack     = ISO7816_SUCCESSIVE_RECV_NACK_DISABLE;
	config->iso7816_config.max_iterations           = 7;
#endif
#ifdef FEATURE_USART_COLLISION_DECTION
	config->collision_detection_enable              = false;
    22a6:	7762      	strb	r2, [r4, #29]
	struct usart_config config_usart;
	usart_get_config_defaults(&config_usart);
	config_usart.baudrate = 9600; //14400,19200, 115200
	config_usart.mux_setting = EDBG_CDC_SERCOM_MUX_SETTING;
    22a8:	2380      	movs	r3, #128	; 0x80
    22aa:	035b      	lsls	r3, r3, #13
    22ac:	9303      	str	r3, [sp, #12]
	config_usart.pinmux_pad0 = EDBG_CDC_SERCOM_PINMUX_PAD0;
    22ae:	4b1e      	ldr	r3, [pc, #120]	; (2328 <configure_usart+0xd0>)
    22b0:	930c      	str	r3, [sp, #48]	; 0x30
	config_usart.pinmux_pad1 = EDBG_CDC_SERCOM_PINMUX_PAD1;
    22b2:	4b1e      	ldr	r3, [pc, #120]	; (232c <configure_usart+0xd4>)
    22b4:	930d      	str	r3, [sp, #52]	; 0x34
	config_usart.pinmux_pad2 = EDBG_CDC_SERCOM_PINMUX_PAD2;
    22b6:	2301      	movs	r3, #1
    22b8:	425b      	negs	r3, r3
    22ba:	930e      	str	r3, [sp, #56]	; 0x38
	config_usart.pinmux_pad3 = EDBG_CDC_SERCOM_PINMUX_PAD3;
    22bc:	930f      	str	r3, [sp, #60]	; 0x3c
	
	while(usart_init(&usart_instance, EDBG_CDC_MODULE, &config_usart) != STATUS_OK){}
    22be:	4d1c      	ldr	r5, [pc, #112]	; (2330 <configure_usart+0xd8>)
    22c0:	4c1c      	ldr	r4, [pc, #112]	; (2334 <configure_usart+0xdc>)
    22c2:	466a      	mov	r2, sp
    22c4:	491c      	ldr	r1, [pc, #112]	; (2338 <configure_usart+0xe0>)
    22c6:	0028      	movs	r0, r5
    22c8:	47a0      	blx	r4
    22ca:	2800      	cmp	r0, #0
    22cc:	d1f9      	bne.n	22c2 <configure_usart+0x6a>
	/* Sanity check arguments */
	Assert(module);
	Assert(module->hw);

	/* Get a pointer to the hardware module instance */
	SercomUsart *const usart_hw = &(module->hw->USART);
    22ce:	4d18      	ldr	r5, [pc, #96]	; (2330 <configure_usart+0xd8>)
    22d0:	682c      	ldr	r4, [r5, #0]

#if USART_CALLBACK_MODE == true
	/* Enable Global interrupt for module */
	system_interrupt_enable(_sercom_get_interrupt_vector(module->hw));
    22d2:	0020      	movs	r0, r4
    22d4:	4b19      	ldr	r3, [pc, #100]	; (233c <configure_usart+0xe4>)
    22d6:	4798      	blx	r3
 * \param[in] vector Interrupt vector to enable
 */
static inline void system_interrupt_enable(
		const enum system_interrupt_vector vector)
{
	NVIC->ISER[0] = (uint32_t)(1 << ((uint32_t)vector & 0x0000001f));
    22d8:	231f      	movs	r3, #31
    22da:	4018      	ands	r0, r3
    22dc:	3b1e      	subs	r3, #30
    22de:	4083      	lsls	r3, r0
    22e0:	4a17      	ldr	r2, [pc, #92]	; (2340 <configure_usart+0xe8>)
    22e2:	6013      	str	r3, [r2, #0]
{
	/* Sanity check arguments */
	Assert(module);
	Assert(module->hw);

	SercomUsart *const usart_hw = &(module->hw->USART);
    22e4:	682a      	ldr	r2, [r5, #0]

#ifdef FEATURE_USART_SYNC_SCHEME_V2
	return (usart_hw->SYNCBUSY.reg);
    22e6:	69d3      	ldr	r3, [r2, #28]
		const struct usart_module *const module)
{
	/* Sanity check */
	Assert(module);

	while (usart_is_syncing(module)) {
    22e8:	2b00      	cmp	r3, #0
    22ea:	d1fc      	bne.n	22e6 <configure_usart+0x8e>

	/* Wait until synchronization is complete */
	_usart_wait_for_sync(module);

	/* Enable USART module */
	usart_hw->CTRLA.reg |= SERCOM_USART_CTRLA_ENABLE;
    22ec:	6822      	ldr	r2, [r4, #0]
    22ee:	3302      	adds	r3, #2
    22f0:	4313      	orrs	r3, r2
    22f2:	6023      	str	r3, [r4, #0]
static inline void stdio_serial_init(
		struct usart_module *const module,
		usart_inst_t const hw,
		const struct usart_config *const config)
{
	stdio_base = (void *)module;
    22f4:	480e      	ldr	r0, [pc, #56]	; (2330 <configure_usart+0xd8>)
    22f6:	4b13      	ldr	r3, [pc, #76]	; (2344 <configure_usart+0xec>)
    22f8:	6018      	str	r0, [r3, #0]
	ptr_put = (int (*)(void volatile*,char))&usart_serial_putchar;
    22fa:	4a13      	ldr	r2, [pc, #76]	; (2348 <configure_usart+0xf0>)
    22fc:	4b13      	ldr	r3, [pc, #76]	; (234c <configure_usart+0xf4>)
    22fe:	601a      	str	r2, [r3, #0]
	ptr_get = (void (*)(void volatile*,char*))&usart_serial_getchar;
    2300:	4a13      	ldr	r2, [pc, #76]	; (2350 <configure_usart+0xf8>)
    2302:	4b14      	ldr	r3, [pc, #80]	; (2354 <configure_usart+0xfc>)
    2304:	601a      	str	r2, [r3, #0]
static inline bool usart_serial_init(
		struct usart_module *const module,
		usart_inst_t const hw,
		const struct usart_config *const config)
{
	if (usart_init(module, hw, config) == STATUS_OK) {
    2306:	466a      	mov	r2, sp
    2308:	490b      	ldr	r1, [pc, #44]	; (2338 <configure_usart+0xe0>)
    230a:	4b0a      	ldr	r3, [pc, #40]	; (2334 <configure_usart+0xdc>)
    230c:	4798      	blx	r3

	usart_serial_init(module, hw, config);
# if defined(__GNUC__)
	// Specify that stdout and stdin should not be buffered.
	setbuf(stdout, NULL);
    230e:	4d12      	ldr	r5, [pc, #72]	; (2358 <configure_usart+0x100>)
    2310:	682b      	ldr	r3, [r5, #0]
    2312:	6898      	ldr	r0, [r3, #8]
    2314:	2100      	movs	r1, #0
    2316:	4c11      	ldr	r4, [pc, #68]	; (235c <configure_usart+0x104>)
    2318:	47a0      	blx	r4
	setbuf(stdin, NULL);
    231a:	682b      	ldr	r3, [r5, #0]
    231c:	6858      	ldr	r0, [r3, #4]
    231e:	2100      	movs	r1, #0
    2320:	47a0      	blx	r4
	usart_enable(&usart_instance);
	stdio_serial_init(&usart_instance, EDBG_CDC_MODULE, &config_usart );
    2322:	b011      	add	sp, #68	; 0x44
    2324:	bd30      	pop	{r4, r5, pc}
    2326:	46c0      	nop			; (mov r8, r8)
    2328:	00040003 	.word	0x00040003
    232c:	00050003 	.word	0x00050003
    2330:	200001e4 	.word	0x200001e4
    2334:	00000ef1 	.word	0x00000ef1
    2338:	42000800 	.word	0x42000800
    233c:	00001965 	.word	0x00001965
    2340:	e000e100 	.word	0xe000e100
    2344:	200001b8 	.word	0x200001b8
    2348:	00002241 	.word	0x00002241
    234c:	200001b4 	.word	0x200001b4
    2350:	00002215 	.word	0x00002215
    2354:	200001b0 	.word	0x200001b0
    2358:	20000080 	.word	0x20000080
    235c:	00004081 	.word	0x00004081

00002360 <main>:

extern bool infrared_buffer[BUF_LENGTH];

//main----------------------------------------------------------------------------------------
int main(void)
{
    2360:	b5f0      	push	{r4, r5, r6, r7, lr}
    2362:	464f      	mov	r7, r9
    2364:	4646      	mov	r6, r8
    2366:	b4c0      	push	{r6, r7}
    2368:	b085      	sub	sp, #20
	
	system_init();
    236a:	4b1f      	ldr	r3, [pc, #124]	; (23e8 <main+0x88>)
    236c:	4798      	blx	r3
	delay_init();
    236e:	4b1f      	ldr	r3, [pc, #124]	; (23ec <main+0x8c>)
    2370:	4798      	blx	r3
	
	configure_usart();
    2372:	4b1f      	ldr	r3, [pc, #124]	; (23f0 <main+0x90>)
    2374:	4798      	blx	r3
	configure_tc();
    2376:	4b1f      	ldr	r3, [pc, #124]	; (23f4 <main+0x94>)
    2378:	4798      	blx	r3
	
	//configure_spi_master();
	configure_i2c_master();
    237a:	4b1f      	ldr	r3, [pc, #124]	; (23f8 <main+0x98>)
    237c:	4798      	blx	r3
	
	element biggest = { 0x00, NONE, PRE_NONE };
	element smallest = { 0x00, NONE, PRE_NONE };
	rainbow master_color = 7;
	
	printf("Hi this is MASTER\n");
    237e:	481f      	ldr	r0, [pc, #124]	; (23fc <main+0x9c>)
    2380:	4b1f      	ldr	r3, [pc, #124]	; (2400 <main+0xa0>)
    2382:	4798      	blx	r3

	basic_pin_setting();
    2384:	4b1f      	ldr	r3, [pc, #124]	; (2404 <main+0xa4>)
    2386:	4798      	blx	r3
	uint16_t timeout = 0;
	struct i2c_master_packet packet = {
    2388:	aa01      	add	r2, sp, #4
    238a:	4b1f      	ldr	r3, [pc, #124]	; (2408 <main+0xa8>)
    238c:	cb13      	ldmia	r3!, {r0, r1, r4}
    238e:	c213      	stmia	r2!, {r0, r1, r4}
	rainbow master_color = 7;
	
	printf("Hi this is MASTER\n");

	basic_pin_setting();
	uint16_t timeout = 0;
    2390:	2600      	movs	r6, #0
		
	while (true) {
	//	if(!port_pin_get_input_level(BUTTON_0_PIN)) {
	//	spi_select_slave(&spi_master_instance, &slave, true);

		printf("Before write\n");
    2392:	4b1b      	ldr	r3, [pc, #108]	; (2400 <main+0xa0>)
    2394:	4699      	mov	r9, r3
		
		line_sensor_init();
    2396:	4b1d      	ldr	r3, [pc, #116]	; (240c <main+0xac>)
    2398:	4698      	mov	r8, r3
		
	while (true) {
	//	if(!port_pin_get_input_level(BUTTON_0_PIN)) {
	//	spi_select_slave(&spi_master_instance, &slave, true);

		printf("Before write\n");
    239a:	481d      	ldr	r0, [pc, #116]	; (2410 <main+0xb0>)
    239c:	47c8      	blx	r9
		
		line_sensor_init();
    239e:	47c0      	blx	r8
	
		while (i2c_master_write_packet_wait(&i2c_master_instance, &packet) != STATUS_OK) {
    23a0:	4c1c      	ldr	r4, [pc, #112]	; (2414 <main+0xb4>)
    23a2:	4d1d      	ldr	r5, [pc, #116]	; (2418 <main+0xb8>)
    23a4:	e006      	b.n	23b4 <main+0x54>
			
			if (timeout++ == TIMEOUT) {
    23a6:	1c73      	adds	r3, r6, #1
    23a8:	b29b      	uxth	r3, r3
    23aa:	22fa      	movs	r2, #250	; 0xfa
    23ac:	0092      	lsls	r2, r2, #2
    23ae:	4296      	cmp	r6, r2
    23b0:	d006      	beq.n	23c0 <main+0x60>
    23b2:	001e      	movs	r6, r3

		printf("Before write\n");
		
		line_sensor_init();
	
		while (i2c_master_write_packet_wait(&i2c_master_instance, &packet) != STATUS_OK) {
    23b4:	a901      	add	r1, sp, #4
    23b6:	0020      	movs	r0, r4
    23b8:	47a8      	blx	r5
    23ba:	2800      	cmp	r0, #0
    23bc:	d1f3      	bne.n	23a6 <main+0x46>
    23be:	e000      	b.n	23c2 <main+0x62>
			
			if (timeout++ == TIMEOUT) {
    23c0:	001e      	movs	r6, r3
				break;
			}
		}
		delay_ms(5);
    23c2:	2005      	movs	r0, #5
    23c4:	4b15      	ldr	r3, [pc, #84]	; (241c <main+0xbc>)
    23c6:	4798      	blx	r3
		for(int i = 0; i < BUF_LENGTH; i++)
    23c8:	2400      	movs	r4, #0
			printf("%d ", infrared_buffer[i]);
    23ca:	4f15      	ldr	r7, [pc, #84]	; (2420 <main+0xc0>)
    23cc:	4d15      	ldr	r5, [pc, #84]	; (2424 <main+0xc4>)
    23ce:	5d39      	ldrb	r1, [r7, r4]
    23d0:	4815      	ldr	r0, [pc, #84]	; (2428 <main+0xc8>)
    23d2:	47a8      	blx	r5
			if (timeout++ == TIMEOUT) {
				break;
			}
		}
		delay_ms(5);
		for(int i = 0; i < BUF_LENGTH; i++)
    23d4:	3401      	adds	r4, #1
    23d6:	2c03      	cmp	r4, #3
    23d8:	d1f9      	bne.n	23ce <main+0x6e>
			printf("%d ", infrared_buffer[i]);
		printf("\n");
    23da:	200a      	movs	r0, #10
    23dc:	4b13      	ldr	r3, [pc, #76]	; (242c <main+0xcc>)
    23de:	4798      	blx	r3
		//spi_write_buffer_wait(&spi_master_instance, infrared_buffer, BUF_LENGTH);
		//printf("After write\n");
		//spi_select_slave(&spi_master_instance, &slave, false);
		//port_pin_set_output_level(LED_0_PIN, LED0_ACTIVE);
		
		printf("before color\n");	
    23e0:	4813      	ldr	r0, [pc, #76]	; (2430 <main+0xd0>)
    23e2:	4b07      	ldr	r3, [pc, #28]	; (2400 <main+0xa0>)
    23e4:	4798      	blx	r3
				//
	//	tcc_reset(&tcc_instance);
	//	configure_tcc(master_color);
				//
//		}
	}
    23e6:	e7d8      	b.n	239a <main+0x3a>
    23e8:	00002051 	.word	0x00002051
    23ec:	000014b9 	.word	0x000014b9
    23f0:	00002259 	.word	0x00002259
    23f4:	00000895 	.word	0x00000895
    23f8:	000008fd 	.word	0x000008fd
    23fc:	0000513c 	.word	0x0000513c
    2400:	0000406d 	.word	0x0000406d
    2404:	00000831 	.word	0x00000831
    2408:	00005130 	.word	0x00005130
    240c:	000021b9 	.word	0x000021b9
    2410:	00005150 	.word	0x00005150
    2414:	2000013c 	.word	0x2000013c
    2418:	00000571 	.word	0x00000571
    241c:	000014f9 	.word	0x000014f9
    2420:	200000e0 	.word	0x200000e0
    2424:	00003f4d 	.word	0x00003f4d
    2428:	00005160 	.word	0x00005160
    242c:	00003f81 	.word	0x00003f81
    2430:	00005164 	.word	0x00005164

00002434 <__aeabi_uidiv>:
    2434:	2200      	movs	r2, #0
    2436:	0843      	lsrs	r3, r0, #1
    2438:	428b      	cmp	r3, r1
    243a:	d374      	bcc.n	2526 <__aeabi_uidiv+0xf2>
    243c:	0903      	lsrs	r3, r0, #4
    243e:	428b      	cmp	r3, r1
    2440:	d35f      	bcc.n	2502 <__aeabi_uidiv+0xce>
    2442:	0a03      	lsrs	r3, r0, #8
    2444:	428b      	cmp	r3, r1
    2446:	d344      	bcc.n	24d2 <__aeabi_uidiv+0x9e>
    2448:	0b03      	lsrs	r3, r0, #12
    244a:	428b      	cmp	r3, r1
    244c:	d328      	bcc.n	24a0 <__aeabi_uidiv+0x6c>
    244e:	0c03      	lsrs	r3, r0, #16
    2450:	428b      	cmp	r3, r1
    2452:	d30d      	bcc.n	2470 <__aeabi_uidiv+0x3c>
    2454:	22ff      	movs	r2, #255	; 0xff
    2456:	0209      	lsls	r1, r1, #8
    2458:	ba12      	rev	r2, r2
    245a:	0c03      	lsrs	r3, r0, #16
    245c:	428b      	cmp	r3, r1
    245e:	d302      	bcc.n	2466 <__aeabi_uidiv+0x32>
    2460:	1212      	asrs	r2, r2, #8
    2462:	0209      	lsls	r1, r1, #8
    2464:	d065      	beq.n	2532 <__aeabi_uidiv+0xfe>
    2466:	0b03      	lsrs	r3, r0, #12
    2468:	428b      	cmp	r3, r1
    246a:	d319      	bcc.n	24a0 <__aeabi_uidiv+0x6c>
    246c:	e000      	b.n	2470 <__aeabi_uidiv+0x3c>
    246e:	0a09      	lsrs	r1, r1, #8
    2470:	0bc3      	lsrs	r3, r0, #15
    2472:	428b      	cmp	r3, r1
    2474:	d301      	bcc.n	247a <__aeabi_uidiv+0x46>
    2476:	03cb      	lsls	r3, r1, #15
    2478:	1ac0      	subs	r0, r0, r3
    247a:	4152      	adcs	r2, r2
    247c:	0b83      	lsrs	r3, r0, #14
    247e:	428b      	cmp	r3, r1
    2480:	d301      	bcc.n	2486 <__aeabi_uidiv+0x52>
    2482:	038b      	lsls	r3, r1, #14
    2484:	1ac0      	subs	r0, r0, r3
    2486:	4152      	adcs	r2, r2
    2488:	0b43      	lsrs	r3, r0, #13
    248a:	428b      	cmp	r3, r1
    248c:	d301      	bcc.n	2492 <__aeabi_uidiv+0x5e>
    248e:	034b      	lsls	r3, r1, #13
    2490:	1ac0      	subs	r0, r0, r3
    2492:	4152      	adcs	r2, r2
    2494:	0b03      	lsrs	r3, r0, #12
    2496:	428b      	cmp	r3, r1
    2498:	d301      	bcc.n	249e <__aeabi_uidiv+0x6a>
    249a:	030b      	lsls	r3, r1, #12
    249c:	1ac0      	subs	r0, r0, r3
    249e:	4152      	adcs	r2, r2
    24a0:	0ac3      	lsrs	r3, r0, #11
    24a2:	428b      	cmp	r3, r1
    24a4:	d301      	bcc.n	24aa <__aeabi_uidiv+0x76>
    24a6:	02cb      	lsls	r3, r1, #11
    24a8:	1ac0      	subs	r0, r0, r3
    24aa:	4152      	adcs	r2, r2
    24ac:	0a83      	lsrs	r3, r0, #10
    24ae:	428b      	cmp	r3, r1
    24b0:	d301      	bcc.n	24b6 <__aeabi_uidiv+0x82>
    24b2:	028b      	lsls	r3, r1, #10
    24b4:	1ac0      	subs	r0, r0, r3
    24b6:	4152      	adcs	r2, r2
    24b8:	0a43      	lsrs	r3, r0, #9
    24ba:	428b      	cmp	r3, r1
    24bc:	d301      	bcc.n	24c2 <__aeabi_uidiv+0x8e>
    24be:	024b      	lsls	r3, r1, #9
    24c0:	1ac0      	subs	r0, r0, r3
    24c2:	4152      	adcs	r2, r2
    24c4:	0a03      	lsrs	r3, r0, #8
    24c6:	428b      	cmp	r3, r1
    24c8:	d301      	bcc.n	24ce <__aeabi_uidiv+0x9a>
    24ca:	020b      	lsls	r3, r1, #8
    24cc:	1ac0      	subs	r0, r0, r3
    24ce:	4152      	adcs	r2, r2
    24d0:	d2cd      	bcs.n	246e <__aeabi_uidiv+0x3a>
    24d2:	09c3      	lsrs	r3, r0, #7
    24d4:	428b      	cmp	r3, r1
    24d6:	d301      	bcc.n	24dc <__aeabi_uidiv+0xa8>
    24d8:	01cb      	lsls	r3, r1, #7
    24da:	1ac0      	subs	r0, r0, r3
    24dc:	4152      	adcs	r2, r2
    24de:	0983      	lsrs	r3, r0, #6
    24e0:	428b      	cmp	r3, r1
    24e2:	d301      	bcc.n	24e8 <__aeabi_uidiv+0xb4>
    24e4:	018b      	lsls	r3, r1, #6
    24e6:	1ac0      	subs	r0, r0, r3
    24e8:	4152      	adcs	r2, r2
    24ea:	0943      	lsrs	r3, r0, #5
    24ec:	428b      	cmp	r3, r1
    24ee:	d301      	bcc.n	24f4 <__aeabi_uidiv+0xc0>
    24f0:	014b      	lsls	r3, r1, #5
    24f2:	1ac0      	subs	r0, r0, r3
    24f4:	4152      	adcs	r2, r2
    24f6:	0903      	lsrs	r3, r0, #4
    24f8:	428b      	cmp	r3, r1
    24fa:	d301      	bcc.n	2500 <__aeabi_uidiv+0xcc>
    24fc:	010b      	lsls	r3, r1, #4
    24fe:	1ac0      	subs	r0, r0, r3
    2500:	4152      	adcs	r2, r2
    2502:	08c3      	lsrs	r3, r0, #3
    2504:	428b      	cmp	r3, r1
    2506:	d301      	bcc.n	250c <__aeabi_uidiv+0xd8>
    2508:	00cb      	lsls	r3, r1, #3
    250a:	1ac0      	subs	r0, r0, r3
    250c:	4152      	adcs	r2, r2
    250e:	0883      	lsrs	r3, r0, #2
    2510:	428b      	cmp	r3, r1
    2512:	d301      	bcc.n	2518 <__aeabi_uidiv+0xe4>
    2514:	008b      	lsls	r3, r1, #2
    2516:	1ac0      	subs	r0, r0, r3
    2518:	4152      	adcs	r2, r2
    251a:	0843      	lsrs	r3, r0, #1
    251c:	428b      	cmp	r3, r1
    251e:	d301      	bcc.n	2524 <__aeabi_uidiv+0xf0>
    2520:	004b      	lsls	r3, r1, #1
    2522:	1ac0      	subs	r0, r0, r3
    2524:	4152      	adcs	r2, r2
    2526:	1a41      	subs	r1, r0, r1
    2528:	d200      	bcs.n	252c <__aeabi_uidiv+0xf8>
    252a:	4601      	mov	r1, r0
    252c:	4152      	adcs	r2, r2
    252e:	4610      	mov	r0, r2
    2530:	4770      	bx	lr
    2532:	e7ff      	b.n	2534 <__aeabi_uidiv+0x100>
    2534:	b501      	push	{r0, lr}
    2536:	2000      	movs	r0, #0
    2538:	f000 f806 	bl	2548 <__aeabi_idiv0>
    253c:	bd02      	pop	{r1, pc}
    253e:	46c0      	nop			; (mov r8, r8)

00002540 <__aeabi_uidivmod>:
    2540:	2900      	cmp	r1, #0
    2542:	d0f7      	beq.n	2534 <__aeabi_uidiv+0x100>
    2544:	e776      	b.n	2434 <__aeabi_uidiv>
    2546:	4770      	bx	lr

00002548 <__aeabi_idiv0>:
    2548:	4770      	bx	lr
    254a:	46c0      	nop			; (mov r8, r8)

0000254c <__aeabi_lmul>:
    254c:	b5f0      	push	{r4, r5, r6, r7, lr}
    254e:	464f      	mov	r7, r9
    2550:	4646      	mov	r6, r8
    2552:	b4c0      	push	{r6, r7}
    2554:	0416      	lsls	r6, r2, #16
    2556:	0c36      	lsrs	r6, r6, #16
    2558:	4699      	mov	r9, r3
    255a:	0033      	movs	r3, r6
    255c:	0405      	lsls	r5, r0, #16
    255e:	0c2c      	lsrs	r4, r5, #16
    2560:	0c07      	lsrs	r7, r0, #16
    2562:	0c15      	lsrs	r5, r2, #16
    2564:	4363      	muls	r3, r4
    2566:	437e      	muls	r6, r7
    2568:	436f      	muls	r7, r5
    256a:	4365      	muls	r5, r4
    256c:	0c1c      	lsrs	r4, r3, #16
    256e:	19ad      	adds	r5, r5, r6
    2570:	1964      	adds	r4, r4, r5
    2572:	469c      	mov	ip, r3
    2574:	42a6      	cmp	r6, r4
    2576:	d903      	bls.n	2580 <__aeabi_lmul+0x34>
    2578:	2380      	movs	r3, #128	; 0x80
    257a:	025b      	lsls	r3, r3, #9
    257c:	4698      	mov	r8, r3
    257e:	4447      	add	r7, r8
    2580:	4663      	mov	r3, ip
    2582:	0c25      	lsrs	r5, r4, #16
    2584:	19ef      	adds	r7, r5, r7
    2586:	041d      	lsls	r5, r3, #16
    2588:	464b      	mov	r3, r9
    258a:	434a      	muls	r2, r1
    258c:	4343      	muls	r3, r0
    258e:	0c2d      	lsrs	r5, r5, #16
    2590:	0424      	lsls	r4, r4, #16
    2592:	1964      	adds	r4, r4, r5
    2594:	1899      	adds	r1, r3, r2
    2596:	19c9      	adds	r1, r1, r7
    2598:	0020      	movs	r0, r4
    259a:	bc0c      	pop	{r2, r3}
    259c:	4690      	mov	r8, r2
    259e:	4699      	mov	r9, r3
    25a0:	bdf0      	pop	{r4, r5, r6, r7, pc}
    25a2:	46c0      	nop			; (mov r8, r8)

000025a4 <__aeabi_dadd>:
    25a4:	b5f8      	push	{r3, r4, r5, r6, r7, lr}
    25a6:	4656      	mov	r6, sl
    25a8:	465f      	mov	r7, fp
    25aa:	464d      	mov	r5, r9
    25ac:	4644      	mov	r4, r8
    25ae:	b4f0      	push	{r4, r5, r6, r7}
    25b0:	000f      	movs	r7, r1
    25b2:	0ffd      	lsrs	r5, r7, #31
    25b4:	46aa      	mov	sl, r5
    25b6:	0309      	lsls	r1, r1, #12
    25b8:	007c      	lsls	r4, r7, #1
    25ba:	002e      	movs	r6, r5
    25bc:	005f      	lsls	r7, r3, #1
    25be:	0f45      	lsrs	r5, r0, #29
    25c0:	0a49      	lsrs	r1, r1, #9
    25c2:	0d7f      	lsrs	r7, r7, #21
    25c4:	4329      	orrs	r1, r5
    25c6:	00c5      	lsls	r5, r0, #3
    25c8:	0318      	lsls	r0, r3, #12
    25ca:	46bc      	mov	ip, r7
    25cc:	0a40      	lsrs	r0, r0, #9
    25ce:	0f57      	lsrs	r7, r2, #29
    25d0:	0d64      	lsrs	r4, r4, #21
    25d2:	0fdb      	lsrs	r3, r3, #31
    25d4:	4338      	orrs	r0, r7
    25d6:	00d2      	lsls	r2, r2, #3
    25d8:	459a      	cmp	sl, r3
    25da:	d100      	bne.n	25de <__aeabi_dadd+0x3a>
    25dc:	e0aa      	b.n	2734 <__aeabi_dadd+0x190>
    25de:	4666      	mov	r6, ip
    25e0:	1ba6      	subs	r6, r4, r6
    25e2:	2e00      	cmp	r6, #0
    25e4:	dc00      	bgt.n	25e8 <__aeabi_dadd+0x44>
    25e6:	e0ff      	b.n	27e8 <__aeabi_dadd+0x244>
    25e8:	4663      	mov	r3, ip
    25ea:	2b00      	cmp	r3, #0
    25ec:	d139      	bne.n	2662 <__aeabi_dadd+0xbe>
    25ee:	0003      	movs	r3, r0
    25f0:	4313      	orrs	r3, r2
    25f2:	d000      	beq.n	25f6 <__aeabi_dadd+0x52>
    25f4:	e0d9      	b.n	27aa <__aeabi_dadd+0x206>
    25f6:	076b      	lsls	r3, r5, #29
    25f8:	d009      	beq.n	260e <__aeabi_dadd+0x6a>
    25fa:	230f      	movs	r3, #15
    25fc:	402b      	ands	r3, r5
    25fe:	2b04      	cmp	r3, #4
    2600:	d005      	beq.n	260e <__aeabi_dadd+0x6a>
    2602:	1d2b      	adds	r3, r5, #4
    2604:	42ab      	cmp	r3, r5
    2606:	41ad      	sbcs	r5, r5
    2608:	426d      	negs	r5, r5
    260a:	1949      	adds	r1, r1, r5
    260c:	001d      	movs	r5, r3
    260e:	020b      	lsls	r3, r1, #8
    2610:	d400      	bmi.n	2614 <__aeabi_dadd+0x70>
    2612:	e082      	b.n	271a <__aeabi_dadd+0x176>
    2614:	4bca      	ldr	r3, [pc, #808]	; (2940 <__aeabi_dadd+0x39c>)
    2616:	3401      	adds	r4, #1
    2618:	429c      	cmp	r4, r3
    261a:	d100      	bne.n	261e <__aeabi_dadd+0x7a>
    261c:	e0fe      	b.n	281c <__aeabi_dadd+0x278>
    261e:	000a      	movs	r2, r1
    2620:	4656      	mov	r6, sl
    2622:	4bc8      	ldr	r3, [pc, #800]	; (2944 <__aeabi_dadd+0x3a0>)
    2624:	08ed      	lsrs	r5, r5, #3
    2626:	401a      	ands	r2, r3
    2628:	0750      	lsls	r0, r2, #29
    262a:	0564      	lsls	r4, r4, #21
    262c:	0252      	lsls	r2, r2, #9
    262e:	4305      	orrs	r5, r0
    2630:	0b12      	lsrs	r2, r2, #12
    2632:	0d64      	lsrs	r4, r4, #21
    2634:	2100      	movs	r1, #0
    2636:	0312      	lsls	r2, r2, #12
    2638:	0d0b      	lsrs	r3, r1, #20
    263a:	051b      	lsls	r3, r3, #20
    263c:	0564      	lsls	r4, r4, #21
    263e:	0b12      	lsrs	r2, r2, #12
    2640:	431a      	orrs	r2, r3
    2642:	0863      	lsrs	r3, r4, #1
    2644:	4cc0      	ldr	r4, [pc, #768]	; (2948 <__aeabi_dadd+0x3a4>)
    2646:	07f6      	lsls	r6, r6, #31
    2648:	4014      	ands	r4, r2
    264a:	431c      	orrs	r4, r3
    264c:	0064      	lsls	r4, r4, #1
    264e:	0864      	lsrs	r4, r4, #1
    2650:	4334      	orrs	r4, r6
    2652:	0028      	movs	r0, r5
    2654:	0021      	movs	r1, r4
    2656:	bc3c      	pop	{r2, r3, r4, r5}
    2658:	4690      	mov	r8, r2
    265a:	4699      	mov	r9, r3
    265c:	46a2      	mov	sl, r4
    265e:	46ab      	mov	fp, r5
    2660:	bdf8      	pop	{r3, r4, r5, r6, r7, pc}
    2662:	4bb7      	ldr	r3, [pc, #732]	; (2940 <__aeabi_dadd+0x39c>)
    2664:	429c      	cmp	r4, r3
    2666:	d0c6      	beq.n	25f6 <__aeabi_dadd+0x52>
    2668:	2380      	movs	r3, #128	; 0x80
    266a:	041b      	lsls	r3, r3, #16
    266c:	4318      	orrs	r0, r3
    266e:	2e38      	cmp	r6, #56	; 0x38
    2670:	dd00      	ble.n	2674 <__aeabi_dadd+0xd0>
    2672:	e0eb      	b.n	284c <__aeabi_dadd+0x2a8>
    2674:	2e1f      	cmp	r6, #31
    2676:	dd00      	ble.n	267a <__aeabi_dadd+0xd6>
    2678:	e11e      	b.n	28b8 <__aeabi_dadd+0x314>
    267a:	2320      	movs	r3, #32
    267c:	1b9b      	subs	r3, r3, r6
    267e:	469c      	mov	ip, r3
    2680:	0003      	movs	r3, r0
    2682:	4667      	mov	r7, ip
    2684:	40bb      	lsls	r3, r7
    2686:	4698      	mov	r8, r3
    2688:	0013      	movs	r3, r2
    268a:	4647      	mov	r7, r8
    268c:	40f3      	lsrs	r3, r6
    268e:	433b      	orrs	r3, r7
    2690:	4667      	mov	r7, ip
    2692:	40ba      	lsls	r2, r7
    2694:	1e57      	subs	r7, r2, #1
    2696:	41ba      	sbcs	r2, r7
    2698:	4313      	orrs	r3, r2
    269a:	0002      	movs	r2, r0
    269c:	40f2      	lsrs	r2, r6
    269e:	1aeb      	subs	r3, r5, r3
    26a0:	429d      	cmp	r5, r3
    26a2:	41b6      	sbcs	r6, r6
    26a4:	001d      	movs	r5, r3
    26a6:	1a8a      	subs	r2, r1, r2
    26a8:	4276      	negs	r6, r6
    26aa:	1b91      	subs	r1, r2, r6
    26ac:	020b      	lsls	r3, r1, #8
    26ae:	d531      	bpl.n	2714 <__aeabi_dadd+0x170>
    26b0:	024a      	lsls	r2, r1, #9
    26b2:	0a56      	lsrs	r6, r2, #9
    26b4:	2e00      	cmp	r6, #0
    26b6:	d100      	bne.n	26ba <__aeabi_dadd+0x116>
    26b8:	e0b4      	b.n	2824 <__aeabi_dadd+0x280>
    26ba:	0030      	movs	r0, r6
    26bc:	f001 fbf0 	bl	3ea0 <__clzsi2>
    26c0:	0003      	movs	r3, r0
    26c2:	3b08      	subs	r3, #8
    26c4:	2b1f      	cmp	r3, #31
    26c6:	dd00      	ble.n	26ca <__aeabi_dadd+0x126>
    26c8:	e0b5      	b.n	2836 <__aeabi_dadd+0x292>
    26ca:	2220      	movs	r2, #32
    26cc:	0029      	movs	r1, r5
    26ce:	1ad2      	subs	r2, r2, r3
    26d0:	40d1      	lsrs	r1, r2
    26d2:	409e      	lsls	r6, r3
    26d4:	000a      	movs	r2, r1
    26d6:	409d      	lsls	r5, r3
    26d8:	4332      	orrs	r2, r6
    26da:	429c      	cmp	r4, r3
    26dc:	dd00      	ble.n	26e0 <__aeabi_dadd+0x13c>
    26de:	e0b1      	b.n	2844 <__aeabi_dadd+0x2a0>
    26e0:	1b1c      	subs	r4, r3, r4
    26e2:	1c63      	adds	r3, r4, #1
    26e4:	2b1f      	cmp	r3, #31
    26e6:	dd00      	ble.n	26ea <__aeabi_dadd+0x146>
    26e8:	e0d5      	b.n	2896 <__aeabi_dadd+0x2f2>
    26ea:	2120      	movs	r1, #32
    26ec:	0014      	movs	r4, r2
    26ee:	0028      	movs	r0, r5
    26f0:	1ac9      	subs	r1, r1, r3
    26f2:	408c      	lsls	r4, r1
    26f4:	40d8      	lsrs	r0, r3
    26f6:	408d      	lsls	r5, r1
    26f8:	4304      	orrs	r4, r0
    26fa:	40da      	lsrs	r2, r3
    26fc:	1e68      	subs	r0, r5, #1
    26fe:	4185      	sbcs	r5, r0
    2700:	0011      	movs	r1, r2
    2702:	4325      	orrs	r5, r4
    2704:	2400      	movs	r4, #0
    2706:	e776      	b.n	25f6 <__aeabi_dadd+0x52>
    2708:	4641      	mov	r1, r8
    270a:	4331      	orrs	r1, r6
    270c:	d100      	bne.n	2710 <__aeabi_dadd+0x16c>
    270e:	e234      	b.n	2b7a <__aeabi_dadd+0x5d6>
    2710:	0031      	movs	r1, r6
    2712:	4645      	mov	r5, r8
    2714:	076b      	lsls	r3, r5, #29
    2716:	d000      	beq.n	271a <__aeabi_dadd+0x176>
    2718:	e76f      	b.n	25fa <__aeabi_dadd+0x56>
    271a:	4656      	mov	r6, sl
    271c:	0748      	lsls	r0, r1, #29
    271e:	08ed      	lsrs	r5, r5, #3
    2720:	08c9      	lsrs	r1, r1, #3
    2722:	4305      	orrs	r5, r0
    2724:	4b86      	ldr	r3, [pc, #536]	; (2940 <__aeabi_dadd+0x39c>)
    2726:	429c      	cmp	r4, r3
    2728:	d035      	beq.n	2796 <__aeabi_dadd+0x1f2>
    272a:	030a      	lsls	r2, r1, #12
    272c:	0564      	lsls	r4, r4, #21
    272e:	0b12      	lsrs	r2, r2, #12
    2730:	0d64      	lsrs	r4, r4, #21
    2732:	e77f      	b.n	2634 <__aeabi_dadd+0x90>
    2734:	4663      	mov	r3, ip
    2736:	1ae3      	subs	r3, r4, r3
    2738:	469b      	mov	fp, r3
    273a:	2b00      	cmp	r3, #0
    273c:	dc00      	bgt.n	2740 <__aeabi_dadd+0x19c>
    273e:	e08b      	b.n	2858 <__aeabi_dadd+0x2b4>
    2740:	4667      	mov	r7, ip
    2742:	2f00      	cmp	r7, #0
    2744:	d03c      	beq.n	27c0 <__aeabi_dadd+0x21c>
    2746:	4f7e      	ldr	r7, [pc, #504]	; (2940 <__aeabi_dadd+0x39c>)
    2748:	42bc      	cmp	r4, r7
    274a:	d100      	bne.n	274e <__aeabi_dadd+0x1aa>
    274c:	e753      	b.n	25f6 <__aeabi_dadd+0x52>
    274e:	2780      	movs	r7, #128	; 0x80
    2750:	043f      	lsls	r7, r7, #16
    2752:	4338      	orrs	r0, r7
    2754:	465b      	mov	r3, fp
    2756:	2b38      	cmp	r3, #56	; 0x38
    2758:	dc00      	bgt.n	275c <__aeabi_dadd+0x1b8>
    275a:	e0f7      	b.n	294c <__aeabi_dadd+0x3a8>
    275c:	4302      	orrs	r2, r0
    275e:	1e50      	subs	r0, r2, #1
    2760:	4182      	sbcs	r2, r0
    2762:	2000      	movs	r0, #0
    2764:	b2d2      	uxtb	r2, r2
    2766:	1953      	adds	r3, r2, r5
    2768:	1842      	adds	r2, r0, r1
    276a:	42ab      	cmp	r3, r5
    276c:	4189      	sbcs	r1, r1
    276e:	001d      	movs	r5, r3
    2770:	4249      	negs	r1, r1
    2772:	1889      	adds	r1, r1, r2
    2774:	020b      	lsls	r3, r1, #8
    2776:	d5cd      	bpl.n	2714 <__aeabi_dadd+0x170>
    2778:	4b71      	ldr	r3, [pc, #452]	; (2940 <__aeabi_dadd+0x39c>)
    277a:	3401      	adds	r4, #1
    277c:	429c      	cmp	r4, r3
    277e:	d100      	bne.n	2782 <__aeabi_dadd+0x1de>
    2780:	e13d      	b.n	29fe <__aeabi_dadd+0x45a>
    2782:	2001      	movs	r0, #1
    2784:	4a6f      	ldr	r2, [pc, #444]	; (2944 <__aeabi_dadd+0x3a0>)
    2786:	086b      	lsrs	r3, r5, #1
    2788:	400a      	ands	r2, r1
    278a:	4028      	ands	r0, r5
    278c:	4318      	orrs	r0, r3
    278e:	07d5      	lsls	r5, r2, #31
    2790:	4305      	orrs	r5, r0
    2792:	0851      	lsrs	r1, r2, #1
    2794:	e72f      	b.n	25f6 <__aeabi_dadd+0x52>
    2796:	002b      	movs	r3, r5
    2798:	430b      	orrs	r3, r1
    279a:	d100      	bne.n	279e <__aeabi_dadd+0x1fa>
    279c:	e1cb      	b.n	2b36 <__aeabi_dadd+0x592>
    279e:	2380      	movs	r3, #128	; 0x80
    27a0:	031b      	lsls	r3, r3, #12
    27a2:	430b      	orrs	r3, r1
    27a4:	031a      	lsls	r2, r3, #12
    27a6:	0b12      	lsrs	r2, r2, #12
    27a8:	e744      	b.n	2634 <__aeabi_dadd+0x90>
    27aa:	3e01      	subs	r6, #1
    27ac:	2e00      	cmp	r6, #0
    27ae:	d16d      	bne.n	288c <__aeabi_dadd+0x2e8>
    27b0:	1aae      	subs	r6, r5, r2
    27b2:	42b5      	cmp	r5, r6
    27b4:	419b      	sbcs	r3, r3
    27b6:	1a09      	subs	r1, r1, r0
    27b8:	425b      	negs	r3, r3
    27ba:	1ac9      	subs	r1, r1, r3
    27bc:	0035      	movs	r5, r6
    27be:	e775      	b.n	26ac <__aeabi_dadd+0x108>
    27c0:	0007      	movs	r7, r0
    27c2:	4317      	orrs	r7, r2
    27c4:	d100      	bne.n	27c8 <__aeabi_dadd+0x224>
    27c6:	e716      	b.n	25f6 <__aeabi_dadd+0x52>
    27c8:	2301      	movs	r3, #1
    27ca:	425b      	negs	r3, r3
    27cc:	469c      	mov	ip, r3
    27ce:	44e3      	add	fp, ip
    27d0:	465b      	mov	r3, fp
    27d2:	2b00      	cmp	r3, #0
    27d4:	d000      	beq.n	27d8 <__aeabi_dadd+0x234>
    27d6:	e0e0      	b.n	299a <__aeabi_dadd+0x3f6>
    27d8:	18aa      	adds	r2, r5, r2
    27da:	42aa      	cmp	r2, r5
    27dc:	419b      	sbcs	r3, r3
    27de:	1809      	adds	r1, r1, r0
    27e0:	425b      	negs	r3, r3
    27e2:	1859      	adds	r1, r3, r1
    27e4:	0015      	movs	r5, r2
    27e6:	e7c5      	b.n	2774 <__aeabi_dadd+0x1d0>
    27e8:	2e00      	cmp	r6, #0
    27ea:	d175      	bne.n	28d8 <__aeabi_dadd+0x334>
    27ec:	1c66      	adds	r6, r4, #1
    27ee:	0576      	lsls	r6, r6, #21
    27f0:	0d76      	lsrs	r6, r6, #21
    27f2:	2e01      	cmp	r6, #1
    27f4:	dc00      	bgt.n	27f8 <__aeabi_dadd+0x254>
    27f6:	e0f3      	b.n	29e0 <__aeabi_dadd+0x43c>
    27f8:	1aae      	subs	r6, r5, r2
    27fa:	46b0      	mov	r8, r6
    27fc:	4545      	cmp	r5, r8
    27fe:	41bf      	sbcs	r7, r7
    2800:	1a0e      	subs	r6, r1, r0
    2802:	427f      	negs	r7, r7
    2804:	1bf6      	subs	r6, r6, r7
    2806:	0237      	lsls	r7, r6, #8
    2808:	d400      	bmi.n	280c <__aeabi_dadd+0x268>
    280a:	e08f      	b.n	292c <__aeabi_dadd+0x388>
    280c:	1b55      	subs	r5, r2, r5
    280e:	42aa      	cmp	r2, r5
    2810:	41b6      	sbcs	r6, r6
    2812:	1a41      	subs	r1, r0, r1
    2814:	4276      	negs	r6, r6
    2816:	1b8e      	subs	r6, r1, r6
    2818:	469a      	mov	sl, r3
    281a:	e74b      	b.n	26b4 <__aeabi_dadd+0x110>
    281c:	4656      	mov	r6, sl
    281e:	2200      	movs	r2, #0
    2820:	2500      	movs	r5, #0
    2822:	e707      	b.n	2634 <__aeabi_dadd+0x90>
    2824:	0028      	movs	r0, r5
    2826:	f001 fb3b 	bl	3ea0 <__clzsi2>
    282a:	3020      	adds	r0, #32
    282c:	0003      	movs	r3, r0
    282e:	3b08      	subs	r3, #8
    2830:	2b1f      	cmp	r3, #31
    2832:	dc00      	bgt.n	2836 <__aeabi_dadd+0x292>
    2834:	e749      	b.n	26ca <__aeabi_dadd+0x126>
    2836:	002a      	movs	r2, r5
    2838:	3828      	subs	r0, #40	; 0x28
    283a:	4082      	lsls	r2, r0
    283c:	2500      	movs	r5, #0
    283e:	429c      	cmp	r4, r3
    2840:	dc00      	bgt.n	2844 <__aeabi_dadd+0x2a0>
    2842:	e74d      	b.n	26e0 <__aeabi_dadd+0x13c>
    2844:	493f      	ldr	r1, [pc, #252]	; (2944 <__aeabi_dadd+0x3a0>)
    2846:	1ae4      	subs	r4, r4, r3
    2848:	4011      	ands	r1, r2
    284a:	e6d4      	b.n	25f6 <__aeabi_dadd+0x52>
    284c:	4302      	orrs	r2, r0
    284e:	1e50      	subs	r0, r2, #1
    2850:	4182      	sbcs	r2, r0
    2852:	b2d3      	uxtb	r3, r2
    2854:	2200      	movs	r2, #0
    2856:	e722      	b.n	269e <__aeabi_dadd+0xfa>
    2858:	2b00      	cmp	r3, #0
    285a:	d000      	beq.n	285e <__aeabi_dadd+0x2ba>
    285c:	e0f3      	b.n	2a46 <__aeabi_dadd+0x4a2>
    285e:	1c63      	adds	r3, r4, #1
    2860:	469c      	mov	ip, r3
    2862:	055b      	lsls	r3, r3, #21
    2864:	0d5b      	lsrs	r3, r3, #21
    2866:	2b01      	cmp	r3, #1
    2868:	dc00      	bgt.n	286c <__aeabi_dadd+0x2c8>
    286a:	e09f      	b.n	29ac <__aeabi_dadd+0x408>
    286c:	4b34      	ldr	r3, [pc, #208]	; (2940 <__aeabi_dadd+0x39c>)
    286e:	459c      	cmp	ip, r3
    2870:	d100      	bne.n	2874 <__aeabi_dadd+0x2d0>
    2872:	e0c3      	b.n	29fc <__aeabi_dadd+0x458>
    2874:	18aa      	adds	r2, r5, r2
    2876:	1809      	adds	r1, r1, r0
    2878:	42aa      	cmp	r2, r5
    287a:	4180      	sbcs	r0, r0
    287c:	4240      	negs	r0, r0
    287e:	1841      	adds	r1, r0, r1
    2880:	07cd      	lsls	r5, r1, #31
    2882:	0852      	lsrs	r2, r2, #1
    2884:	4315      	orrs	r5, r2
    2886:	0849      	lsrs	r1, r1, #1
    2888:	4664      	mov	r4, ip
    288a:	e6b4      	b.n	25f6 <__aeabi_dadd+0x52>
    288c:	4b2c      	ldr	r3, [pc, #176]	; (2940 <__aeabi_dadd+0x39c>)
    288e:	429c      	cmp	r4, r3
    2890:	d000      	beq.n	2894 <__aeabi_dadd+0x2f0>
    2892:	e6ec      	b.n	266e <__aeabi_dadd+0xca>
    2894:	e6af      	b.n	25f6 <__aeabi_dadd+0x52>
    2896:	0011      	movs	r1, r2
    2898:	3c1f      	subs	r4, #31
    289a:	40e1      	lsrs	r1, r4
    289c:	000c      	movs	r4, r1
    289e:	2b20      	cmp	r3, #32
    28a0:	d100      	bne.n	28a4 <__aeabi_dadd+0x300>
    28a2:	e07f      	b.n	29a4 <__aeabi_dadd+0x400>
    28a4:	2140      	movs	r1, #64	; 0x40
    28a6:	1acb      	subs	r3, r1, r3
    28a8:	409a      	lsls	r2, r3
    28aa:	4315      	orrs	r5, r2
    28ac:	1e6a      	subs	r2, r5, #1
    28ae:	4195      	sbcs	r5, r2
    28b0:	2100      	movs	r1, #0
    28b2:	4325      	orrs	r5, r4
    28b4:	2400      	movs	r4, #0
    28b6:	e72d      	b.n	2714 <__aeabi_dadd+0x170>
    28b8:	0033      	movs	r3, r6
    28ba:	0007      	movs	r7, r0
    28bc:	3b20      	subs	r3, #32
    28be:	40df      	lsrs	r7, r3
    28c0:	003b      	movs	r3, r7
    28c2:	2e20      	cmp	r6, #32
    28c4:	d070      	beq.n	29a8 <__aeabi_dadd+0x404>
    28c6:	2740      	movs	r7, #64	; 0x40
    28c8:	1bbe      	subs	r6, r7, r6
    28ca:	40b0      	lsls	r0, r6
    28cc:	4302      	orrs	r2, r0
    28ce:	1e50      	subs	r0, r2, #1
    28d0:	4182      	sbcs	r2, r0
    28d2:	4313      	orrs	r3, r2
    28d4:	2200      	movs	r2, #0
    28d6:	e6e2      	b.n	269e <__aeabi_dadd+0xfa>
    28d8:	2c00      	cmp	r4, #0
    28da:	d04f      	beq.n	297c <__aeabi_dadd+0x3d8>
    28dc:	4c18      	ldr	r4, [pc, #96]	; (2940 <__aeabi_dadd+0x39c>)
    28de:	45a4      	cmp	ip, r4
    28e0:	d100      	bne.n	28e4 <__aeabi_dadd+0x340>
    28e2:	e0ab      	b.n	2a3c <__aeabi_dadd+0x498>
    28e4:	2480      	movs	r4, #128	; 0x80
    28e6:	0424      	lsls	r4, r4, #16
    28e8:	4276      	negs	r6, r6
    28ea:	4321      	orrs	r1, r4
    28ec:	2e38      	cmp	r6, #56	; 0x38
    28ee:	dd00      	ble.n	28f2 <__aeabi_dadd+0x34e>
    28f0:	e0df      	b.n	2ab2 <__aeabi_dadd+0x50e>
    28f2:	2e1f      	cmp	r6, #31
    28f4:	dd00      	ble.n	28f8 <__aeabi_dadd+0x354>
    28f6:	e143      	b.n	2b80 <__aeabi_dadd+0x5dc>
    28f8:	2720      	movs	r7, #32
    28fa:	1bbc      	subs	r4, r7, r6
    28fc:	46a1      	mov	r9, r4
    28fe:	000c      	movs	r4, r1
    2900:	464f      	mov	r7, r9
    2902:	40bc      	lsls	r4, r7
    2904:	46a0      	mov	r8, r4
    2906:	002c      	movs	r4, r5
    2908:	4647      	mov	r7, r8
    290a:	40f4      	lsrs	r4, r6
    290c:	433c      	orrs	r4, r7
    290e:	464f      	mov	r7, r9
    2910:	40bd      	lsls	r5, r7
    2912:	1e6f      	subs	r7, r5, #1
    2914:	41bd      	sbcs	r5, r7
    2916:	40f1      	lsrs	r1, r6
    2918:	432c      	orrs	r4, r5
    291a:	1b15      	subs	r5, r2, r4
    291c:	42aa      	cmp	r2, r5
    291e:	4192      	sbcs	r2, r2
    2920:	1a41      	subs	r1, r0, r1
    2922:	4252      	negs	r2, r2
    2924:	1a89      	subs	r1, r1, r2
    2926:	4664      	mov	r4, ip
    2928:	469a      	mov	sl, r3
    292a:	e6bf      	b.n	26ac <__aeabi_dadd+0x108>
    292c:	4641      	mov	r1, r8
    292e:	4645      	mov	r5, r8
    2930:	4331      	orrs	r1, r6
    2932:	d000      	beq.n	2936 <__aeabi_dadd+0x392>
    2934:	e6be      	b.n	26b4 <__aeabi_dadd+0x110>
    2936:	2600      	movs	r6, #0
    2938:	2400      	movs	r4, #0
    293a:	2500      	movs	r5, #0
    293c:	e6f2      	b.n	2724 <__aeabi_dadd+0x180>
    293e:	46c0      	nop			; (mov r8, r8)
    2940:	000007ff 	.word	0x000007ff
    2944:	ff7fffff 	.word	0xff7fffff
    2948:	800fffff 	.word	0x800fffff
    294c:	2b1f      	cmp	r3, #31
    294e:	dc59      	bgt.n	2a04 <__aeabi_dadd+0x460>
    2950:	2720      	movs	r7, #32
    2952:	1aff      	subs	r7, r7, r3
    2954:	46bc      	mov	ip, r7
    2956:	0007      	movs	r7, r0
    2958:	4663      	mov	r3, ip
    295a:	409f      	lsls	r7, r3
    295c:	465b      	mov	r3, fp
    295e:	46b9      	mov	r9, r7
    2960:	0017      	movs	r7, r2
    2962:	40df      	lsrs	r7, r3
    2964:	46b8      	mov	r8, r7
    2966:	464f      	mov	r7, r9
    2968:	4643      	mov	r3, r8
    296a:	431f      	orrs	r7, r3
    296c:	4663      	mov	r3, ip
    296e:	409a      	lsls	r2, r3
    2970:	1e53      	subs	r3, r2, #1
    2972:	419a      	sbcs	r2, r3
    2974:	465b      	mov	r3, fp
    2976:	433a      	orrs	r2, r7
    2978:	40d8      	lsrs	r0, r3
    297a:	e6f4      	b.n	2766 <__aeabi_dadd+0x1c2>
    297c:	000c      	movs	r4, r1
    297e:	432c      	orrs	r4, r5
    2980:	d05c      	beq.n	2a3c <__aeabi_dadd+0x498>
    2982:	43f6      	mvns	r6, r6
    2984:	2e00      	cmp	r6, #0
    2986:	d155      	bne.n	2a34 <__aeabi_dadd+0x490>
    2988:	1b55      	subs	r5, r2, r5
    298a:	42aa      	cmp	r2, r5
    298c:	41a4      	sbcs	r4, r4
    298e:	1a41      	subs	r1, r0, r1
    2990:	4264      	negs	r4, r4
    2992:	1b09      	subs	r1, r1, r4
    2994:	469a      	mov	sl, r3
    2996:	4664      	mov	r4, ip
    2998:	e688      	b.n	26ac <__aeabi_dadd+0x108>
    299a:	4f96      	ldr	r7, [pc, #600]	; (2bf4 <__aeabi_dadd+0x650>)
    299c:	42bc      	cmp	r4, r7
    299e:	d000      	beq.n	29a2 <__aeabi_dadd+0x3fe>
    29a0:	e6d8      	b.n	2754 <__aeabi_dadd+0x1b0>
    29a2:	e628      	b.n	25f6 <__aeabi_dadd+0x52>
    29a4:	2200      	movs	r2, #0
    29a6:	e780      	b.n	28aa <__aeabi_dadd+0x306>
    29a8:	2000      	movs	r0, #0
    29aa:	e78f      	b.n	28cc <__aeabi_dadd+0x328>
    29ac:	000b      	movs	r3, r1
    29ae:	432b      	orrs	r3, r5
    29b0:	2c00      	cmp	r4, #0
    29b2:	d000      	beq.n	29b6 <__aeabi_dadd+0x412>
    29b4:	e0c2      	b.n	2b3c <__aeabi_dadd+0x598>
    29b6:	2b00      	cmp	r3, #0
    29b8:	d100      	bne.n	29bc <__aeabi_dadd+0x418>
    29ba:	e101      	b.n	2bc0 <__aeabi_dadd+0x61c>
    29bc:	0003      	movs	r3, r0
    29be:	4313      	orrs	r3, r2
    29c0:	d100      	bne.n	29c4 <__aeabi_dadd+0x420>
    29c2:	e618      	b.n	25f6 <__aeabi_dadd+0x52>
    29c4:	18ab      	adds	r3, r5, r2
    29c6:	42ab      	cmp	r3, r5
    29c8:	41b6      	sbcs	r6, r6
    29ca:	1809      	adds	r1, r1, r0
    29cc:	4276      	negs	r6, r6
    29ce:	1871      	adds	r1, r6, r1
    29d0:	020a      	lsls	r2, r1, #8
    29d2:	d400      	bmi.n	29d6 <__aeabi_dadd+0x432>
    29d4:	e109      	b.n	2bea <__aeabi_dadd+0x646>
    29d6:	4a88      	ldr	r2, [pc, #544]	; (2bf8 <__aeabi_dadd+0x654>)
    29d8:	001d      	movs	r5, r3
    29da:	4011      	ands	r1, r2
    29dc:	4664      	mov	r4, ip
    29de:	e60a      	b.n	25f6 <__aeabi_dadd+0x52>
    29e0:	2c00      	cmp	r4, #0
    29e2:	d15b      	bne.n	2a9c <__aeabi_dadd+0x4f8>
    29e4:	000e      	movs	r6, r1
    29e6:	432e      	orrs	r6, r5
    29e8:	d000      	beq.n	29ec <__aeabi_dadd+0x448>
    29ea:	e08a      	b.n	2b02 <__aeabi_dadd+0x55e>
    29ec:	0001      	movs	r1, r0
    29ee:	4311      	orrs	r1, r2
    29f0:	d100      	bne.n	29f4 <__aeabi_dadd+0x450>
    29f2:	e0c2      	b.n	2b7a <__aeabi_dadd+0x5d6>
    29f4:	0001      	movs	r1, r0
    29f6:	0015      	movs	r5, r2
    29f8:	469a      	mov	sl, r3
    29fa:	e5fc      	b.n	25f6 <__aeabi_dadd+0x52>
    29fc:	4664      	mov	r4, ip
    29fe:	2100      	movs	r1, #0
    2a00:	2500      	movs	r5, #0
    2a02:	e68f      	b.n	2724 <__aeabi_dadd+0x180>
    2a04:	2320      	movs	r3, #32
    2a06:	425b      	negs	r3, r3
    2a08:	469c      	mov	ip, r3
    2a0a:	44dc      	add	ip, fp
    2a0c:	4663      	mov	r3, ip
    2a0e:	0007      	movs	r7, r0
    2a10:	40df      	lsrs	r7, r3
    2a12:	465b      	mov	r3, fp
    2a14:	46bc      	mov	ip, r7
    2a16:	2b20      	cmp	r3, #32
    2a18:	d100      	bne.n	2a1c <__aeabi_dadd+0x478>
    2a1a:	e0ac      	b.n	2b76 <__aeabi_dadd+0x5d2>
    2a1c:	2340      	movs	r3, #64	; 0x40
    2a1e:	465f      	mov	r7, fp
    2a20:	1bdb      	subs	r3, r3, r7
    2a22:	4098      	lsls	r0, r3
    2a24:	4302      	orrs	r2, r0
    2a26:	1e50      	subs	r0, r2, #1
    2a28:	4182      	sbcs	r2, r0
    2a2a:	4663      	mov	r3, ip
    2a2c:	4313      	orrs	r3, r2
    2a2e:	001a      	movs	r2, r3
    2a30:	2000      	movs	r0, #0
    2a32:	e698      	b.n	2766 <__aeabi_dadd+0x1c2>
    2a34:	4c6f      	ldr	r4, [pc, #444]	; (2bf4 <__aeabi_dadd+0x650>)
    2a36:	45a4      	cmp	ip, r4
    2a38:	d000      	beq.n	2a3c <__aeabi_dadd+0x498>
    2a3a:	e757      	b.n	28ec <__aeabi_dadd+0x348>
    2a3c:	0001      	movs	r1, r0
    2a3e:	0015      	movs	r5, r2
    2a40:	4664      	mov	r4, ip
    2a42:	469a      	mov	sl, r3
    2a44:	e5d7      	b.n	25f6 <__aeabi_dadd+0x52>
    2a46:	2c00      	cmp	r4, #0
    2a48:	d139      	bne.n	2abe <__aeabi_dadd+0x51a>
    2a4a:	000c      	movs	r4, r1
    2a4c:	432c      	orrs	r4, r5
    2a4e:	d06e      	beq.n	2b2e <__aeabi_dadd+0x58a>
    2a50:	43db      	mvns	r3, r3
    2a52:	2b00      	cmp	r3, #0
    2a54:	d01a      	beq.n	2a8c <__aeabi_dadd+0x4e8>
    2a56:	4c67      	ldr	r4, [pc, #412]	; (2bf4 <__aeabi_dadd+0x650>)
    2a58:	45a4      	cmp	ip, r4
    2a5a:	d068      	beq.n	2b2e <__aeabi_dadd+0x58a>
    2a5c:	2b38      	cmp	r3, #56	; 0x38
    2a5e:	dd00      	ble.n	2a62 <__aeabi_dadd+0x4be>
    2a60:	e0a4      	b.n	2bac <__aeabi_dadd+0x608>
    2a62:	2b1f      	cmp	r3, #31
    2a64:	dd00      	ble.n	2a68 <__aeabi_dadd+0x4c4>
    2a66:	e0ae      	b.n	2bc6 <__aeabi_dadd+0x622>
    2a68:	2420      	movs	r4, #32
    2a6a:	000f      	movs	r7, r1
    2a6c:	1ae4      	subs	r4, r4, r3
    2a6e:	40a7      	lsls	r7, r4
    2a70:	46b9      	mov	r9, r7
    2a72:	002f      	movs	r7, r5
    2a74:	40df      	lsrs	r7, r3
    2a76:	46b8      	mov	r8, r7
    2a78:	46a3      	mov	fp, r4
    2a7a:	464f      	mov	r7, r9
    2a7c:	4644      	mov	r4, r8
    2a7e:	4327      	orrs	r7, r4
    2a80:	465c      	mov	r4, fp
    2a82:	40a5      	lsls	r5, r4
    2a84:	1e6c      	subs	r4, r5, #1
    2a86:	41a5      	sbcs	r5, r4
    2a88:	40d9      	lsrs	r1, r3
    2a8a:	433d      	orrs	r5, r7
    2a8c:	18ad      	adds	r5, r5, r2
    2a8e:	4295      	cmp	r5, r2
    2a90:	419b      	sbcs	r3, r3
    2a92:	1809      	adds	r1, r1, r0
    2a94:	425b      	negs	r3, r3
    2a96:	1859      	adds	r1, r3, r1
    2a98:	4664      	mov	r4, ip
    2a9a:	e66b      	b.n	2774 <__aeabi_dadd+0x1d0>
    2a9c:	000c      	movs	r4, r1
    2a9e:	432c      	orrs	r4, r5
    2aa0:	d115      	bne.n	2ace <__aeabi_dadd+0x52a>
    2aa2:	0001      	movs	r1, r0
    2aa4:	4311      	orrs	r1, r2
    2aa6:	d07b      	beq.n	2ba0 <__aeabi_dadd+0x5fc>
    2aa8:	0001      	movs	r1, r0
    2aaa:	0015      	movs	r5, r2
    2aac:	469a      	mov	sl, r3
    2aae:	4c51      	ldr	r4, [pc, #324]	; (2bf4 <__aeabi_dadd+0x650>)
    2ab0:	e5a1      	b.n	25f6 <__aeabi_dadd+0x52>
    2ab2:	430d      	orrs	r5, r1
    2ab4:	1e69      	subs	r1, r5, #1
    2ab6:	418d      	sbcs	r5, r1
    2ab8:	2100      	movs	r1, #0
    2aba:	b2ec      	uxtb	r4, r5
    2abc:	e72d      	b.n	291a <__aeabi_dadd+0x376>
    2abe:	4c4d      	ldr	r4, [pc, #308]	; (2bf4 <__aeabi_dadd+0x650>)
    2ac0:	45a4      	cmp	ip, r4
    2ac2:	d034      	beq.n	2b2e <__aeabi_dadd+0x58a>
    2ac4:	2480      	movs	r4, #128	; 0x80
    2ac6:	0424      	lsls	r4, r4, #16
    2ac8:	425b      	negs	r3, r3
    2aca:	4321      	orrs	r1, r4
    2acc:	e7c6      	b.n	2a5c <__aeabi_dadd+0x4b8>
    2ace:	0004      	movs	r4, r0
    2ad0:	4314      	orrs	r4, r2
    2ad2:	d04e      	beq.n	2b72 <__aeabi_dadd+0x5ce>
    2ad4:	08ed      	lsrs	r5, r5, #3
    2ad6:	074c      	lsls	r4, r1, #29
    2ad8:	432c      	orrs	r4, r5
    2ada:	2580      	movs	r5, #128	; 0x80
    2adc:	08c9      	lsrs	r1, r1, #3
    2ade:	032d      	lsls	r5, r5, #12
    2ae0:	4229      	tst	r1, r5
    2ae2:	d008      	beq.n	2af6 <__aeabi_dadd+0x552>
    2ae4:	08c6      	lsrs	r6, r0, #3
    2ae6:	422e      	tst	r6, r5
    2ae8:	d105      	bne.n	2af6 <__aeabi_dadd+0x552>
    2aea:	08d2      	lsrs	r2, r2, #3
    2aec:	0741      	lsls	r1, r0, #29
    2aee:	4311      	orrs	r1, r2
    2af0:	000c      	movs	r4, r1
    2af2:	469a      	mov	sl, r3
    2af4:	0031      	movs	r1, r6
    2af6:	0f62      	lsrs	r2, r4, #29
    2af8:	00c9      	lsls	r1, r1, #3
    2afa:	00e5      	lsls	r5, r4, #3
    2afc:	4311      	orrs	r1, r2
    2afe:	4c3d      	ldr	r4, [pc, #244]	; (2bf4 <__aeabi_dadd+0x650>)
    2b00:	e579      	b.n	25f6 <__aeabi_dadd+0x52>
    2b02:	0006      	movs	r6, r0
    2b04:	4316      	orrs	r6, r2
    2b06:	d100      	bne.n	2b0a <__aeabi_dadd+0x566>
    2b08:	e575      	b.n	25f6 <__aeabi_dadd+0x52>
    2b0a:	1aae      	subs	r6, r5, r2
    2b0c:	46b0      	mov	r8, r6
    2b0e:	4545      	cmp	r5, r8
    2b10:	41bf      	sbcs	r7, r7
    2b12:	1a0e      	subs	r6, r1, r0
    2b14:	427f      	negs	r7, r7
    2b16:	1bf6      	subs	r6, r6, r7
    2b18:	0237      	lsls	r7, r6, #8
    2b1a:	d400      	bmi.n	2b1e <__aeabi_dadd+0x57a>
    2b1c:	e5f4      	b.n	2708 <__aeabi_dadd+0x164>
    2b1e:	1b55      	subs	r5, r2, r5
    2b20:	42aa      	cmp	r2, r5
    2b22:	41b6      	sbcs	r6, r6
    2b24:	1a41      	subs	r1, r0, r1
    2b26:	4276      	negs	r6, r6
    2b28:	1b89      	subs	r1, r1, r6
    2b2a:	469a      	mov	sl, r3
    2b2c:	e563      	b.n	25f6 <__aeabi_dadd+0x52>
    2b2e:	0001      	movs	r1, r0
    2b30:	0015      	movs	r5, r2
    2b32:	4664      	mov	r4, ip
    2b34:	e55f      	b.n	25f6 <__aeabi_dadd+0x52>
    2b36:	2200      	movs	r2, #0
    2b38:	2500      	movs	r5, #0
    2b3a:	e57b      	b.n	2634 <__aeabi_dadd+0x90>
    2b3c:	2b00      	cmp	r3, #0
    2b3e:	d03b      	beq.n	2bb8 <__aeabi_dadd+0x614>
    2b40:	0003      	movs	r3, r0
    2b42:	4313      	orrs	r3, r2
    2b44:	d015      	beq.n	2b72 <__aeabi_dadd+0x5ce>
    2b46:	08ed      	lsrs	r5, r5, #3
    2b48:	074b      	lsls	r3, r1, #29
    2b4a:	432b      	orrs	r3, r5
    2b4c:	2580      	movs	r5, #128	; 0x80
    2b4e:	08c9      	lsrs	r1, r1, #3
    2b50:	032d      	lsls	r5, r5, #12
    2b52:	4229      	tst	r1, r5
    2b54:	d007      	beq.n	2b66 <__aeabi_dadd+0x5c2>
    2b56:	08c4      	lsrs	r4, r0, #3
    2b58:	422c      	tst	r4, r5
    2b5a:	d104      	bne.n	2b66 <__aeabi_dadd+0x5c2>
    2b5c:	0741      	lsls	r1, r0, #29
    2b5e:	000b      	movs	r3, r1
    2b60:	0021      	movs	r1, r4
    2b62:	08d2      	lsrs	r2, r2, #3
    2b64:	4313      	orrs	r3, r2
    2b66:	00c9      	lsls	r1, r1, #3
    2b68:	0f5a      	lsrs	r2, r3, #29
    2b6a:	4311      	orrs	r1, r2
    2b6c:	00dd      	lsls	r5, r3, #3
    2b6e:	4c21      	ldr	r4, [pc, #132]	; (2bf4 <__aeabi_dadd+0x650>)
    2b70:	e541      	b.n	25f6 <__aeabi_dadd+0x52>
    2b72:	4c20      	ldr	r4, [pc, #128]	; (2bf4 <__aeabi_dadd+0x650>)
    2b74:	e53f      	b.n	25f6 <__aeabi_dadd+0x52>
    2b76:	2000      	movs	r0, #0
    2b78:	e754      	b.n	2a24 <__aeabi_dadd+0x480>
    2b7a:	2600      	movs	r6, #0
    2b7c:	2500      	movs	r5, #0
    2b7e:	e5d1      	b.n	2724 <__aeabi_dadd+0x180>
    2b80:	0034      	movs	r4, r6
    2b82:	000f      	movs	r7, r1
    2b84:	3c20      	subs	r4, #32
    2b86:	40e7      	lsrs	r7, r4
    2b88:	003c      	movs	r4, r7
    2b8a:	2e20      	cmp	r6, #32
    2b8c:	d02b      	beq.n	2be6 <__aeabi_dadd+0x642>
    2b8e:	2740      	movs	r7, #64	; 0x40
    2b90:	1bbe      	subs	r6, r7, r6
    2b92:	40b1      	lsls	r1, r6
    2b94:	430d      	orrs	r5, r1
    2b96:	1e69      	subs	r1, r5, #1
    2b98:	418d      	sbcs	r5, r1
    2b9a:	2100      	movs	r1, #0
    2b9c:	432c      	orrs	r4, r5
    2b9e:	e6bc      	b.n	291a <__aeabi_dadd+0x376>
    2ba0:	2180      	movs	r1, #128	; 0x80
    2ba2:	2600      	movs	r6, #0
    2ba4:	0309      	lsls	r1, r1, #12
    2ba6:	4c13      	ldr	r4, [pc, #76]	; (2bf4 <__aeabi_dadd+0x650>)
    2ba8:	2500      	movs	r5, #0
    2baa:	e5bb      	b.n	2724 <__aeabi_dadd+0x180>
    2bac:	430d      	orrs	r5, r1
    2bae:	1e69      	subs	r1, r5, #1
    2bb0:	418d      	sbcs	r5, r1
    2bb2:	2100      	movs	r1, #0
    2bb4:	b2ed      	uxtb	r5, r5
    2bb6:	e769      	b.n	2a8c <__aeabi_dadd+0x4e8>
    2bb8:	0001      	movs	r1, r0
    2bba:	0015      	movs	r5, r2
    2bbc:	4c0d      	ldr	r4, [pc, #52]	; (2bf4 <__aeabi_dadd+0x650>)
    2bbe:	e51a      	b.n	25f6 <__aeabi_dadd+0x52>
    2bc0:	0001      	movs	r1, r0
    2bc2:	0015      	movs	r5, r2
    2bc4:	e517      	b.n	25f6 <__aeabi_dadd+0x52>
    2bc6:	001c      	movs	r4, r3
    2bc8:	000f      	movs	r7, r1
    2bca:	3c20      	subs	r4, #32
    2bcc:	40e7      	lsrs	r7, r4
    2bce:	003c      	movs	r4, r7
    2bd0:	2b20      	cmp	r3, #32
    2bd2:	d00c      	beq.n	2bee <__aeabi_dadd+0x64a>
    2bd4:	2740      	movs	r7, #64	; 0x40
    2bd6:	1afb      	subs	r3, r7, r3
    2bd8:	4099      	lsls	r1, r3
    2bda:	430d      	orrs	r5, r1
    2bdc:	1e69      	subs	r1, r5, #1
    2bde:	418d      	sbcs	r5, r1
    2be0:	2100      	movs	r1, #0
    2be2:	4325      	orrs	r5, r4
    2be4:	e752      	b.n	2a8c <__aeabi_dadd+0x4e8>
    2be6:	2100      	movs	r1, #0
    2be8:	e7d4      	b.n	2b94 <__aeabi_dadd+0x5f0>
    2bea:	001d      	movs	r5, r3
    2bec:	e592      	b.n	2714 <__aeabi_dadd+0x170>
    2bee:	2100      	movs	r1, #0
    2bf0:	e7f3      	b.n	2bda <__aeabi_dadd+0x636>
    2bf2:	46c0      	nop			; (mov r8, r8)
    2bf4:	000007ff 	.word	0x000007ff
    2bf8:	ff7fffff 	.word	0xff7fffff

00002bfc <__aeabi_ddiv>:
    2bfc:	b5f0      	push	{r4, r5, r6, r7, lr}
    2bfe:	4656      	mov	r6, sl
    2c00:	464d      	mov	r5, r9
    2c02:	4644      	mov	r4, r8
    2c04:	465f      	mov	r7, fp
    2c06:	b4f0      	push	{r4, r5, r6, r7}
    2c08:	001d      	movs	r5, r3
    2c0a:	030e      	lsls	r6, r1, #12
    2c0c:	004c      	lsls	r4, r1, #1
    2c0e:	0fcb      	lsrs	r3, r1, #31
    2c10:	b087      	sub	sp, #28
    2c12:	0007      	movs	r7, r0
    2c14:	4692      	mov	sl, r2
    2c16:	4681      	mov	r9, r0
    2c18:	0b36      	lsrs	r6, r6, #12
    2c1a:	0d64      	lsrs	r4, r4, #21
    2c1c:	4698      	mov	r8, r3
    2c1e:	d06a      	beq.n	2cf6 <__aeabi_ddiv+0xfa>
    2c20:	4b6d      	ldr	r3, [pc, #436]	; (2dd8 <__aeabi_ddiv+0x1dc>)
    2c22:	429c      	cmp	r4, r3
    2c24:	d035      	beq.n	2c92 <__aeabi_ddiv+0x96>
    2c26:	2280      	movs	r2, #128	; 0x80
    2c28:	0f43      	lsrs	r3, r0, #29
    2c2a:	0412      	lsls	r2, r2, #16
    2c2c:	4313      	orrs	r3, r2
    2c2e:	00f6      	lsls	r6, r6, #3
    2c30:	431e      	orrs	r6, r3
    2c32:	00c3      	lsls	r3, r0, #3
    2c34:	4699      	mov	r9, r3
    2c36:	4b69      	ldr	r3, [pc, #420]	; (2ddc <__aeabi_ddiv+0x1e0>)
    2c38:	2700      	movs	r7, #0
    2c3a:	469c      	mov	ip, r3
    2c3c:	2300      	movs	r3, #0
    2c3e:	4464      	add	r4, ip
    2c40:	9302      	str	r3, [sp, #8]
    2c42:	032b      	lsls	r3, r5, #12
    2c44:	0068      	lsls	r0, r5, #1
    2c46:	0b1b      	lsrs	r3, r3, #12
    2c48:	0fed      	lsrs	r5, r5, #31
    2c4a:	4651      	mov	r1, sl
    2c4c:	469b      	mov	fp, r3
    2c4e:	0d40      	lsrs	r0, r0, #21
    2c50:	9500      	str	r5, [sp, #0]
    2c52:	d100      	bne.n	2c56 <__aeabi_ddiv+0x5a>
    2c54:	e078      	b.n	2d48 <__aeabi_ddiv+0x14c>
    2c56:	4b60      	ldr	r3, [pc, #384]	; (2dd8 <__aeabi_ddiv+0x1dc>)
    2c58:	4298      	cmp	r0, r3
    2c5a:	d06c      	beq.n	2d36 <__aeabi_ddiv+0x13a>
    2c5c:	465b      	mov	r3, fp
    2c5e:	00da      	lsls	r2, r3, #3
    2c60:	0f4b      	lsrs	r3, r1, #29
    2c62:	2180      	movs	r1, #128	; 0x80
    2c64:	0409      	lsls	r1, r1, #16
    2c66:	430b      	orrs	r3, r1
    2c68:	4313      	orrs	r3, r2
    2c6a:	469b      	mov	fp, r3
    2c6c:	4653      	mov	r3, sl
    2c6e:	00d9      	lsls	r1, r3, #3
    2c70:	4b5a      	ldr	r3, [pc, #360]	; (2ddc <__aeabi_ddiv+0x1e0>)
    2c72:	469c      	mov	ip, r3
    2c74:	2300      	movs	r3, #0
    2c76:	4460      	add	r0, ip
    2c78:	4642      	mov	r2, r8
    2c7a:	1a20      	subs	r0, r4, r0
    2c7c:	406a      	eors	r2, r5
    2c7e:	4692      	mov	sl, r2
    2c80:	9001      	str	r0, [sp, #4]
    2c82:	431f      	orrs	r7, r3
    2c84:	2f0f      	cmp	r7, #15
    2c86:	d900      	bls.n	2c8a <__aeabi_ddiv+0x8e>
    2c88:	e0b0      	b.n	2dec <__aeabi_ddiv+0x1f0>
    2c8a:	4855      	ldr	r0, [pc, #340]	; (2de0 <__aeabi_ddiv+0x1e4>)
    2c8c:	00bf      	lsls	r7, r7, #2
    2c8e:	59c0      	ldr	r0, [r0, r7]
    2c90:	4687      	mov	pc, r0
    2c92:	4337      	orrs	r7, r6
    2c94:	d000      	beq.n	2c98 <__aeabi_ddiv+0x9c>
    2c96:	e088      	b.n	2daa <__aeabi_ddiv+0x1ae>
    2c98:	2300      	movs	r3, #0
    2c9a:	4699      	mov	r9, r3
    2c9c:	3302      	adds	r3, #2
    2c9e:	2708      	movs	r7, #8
    2ca0:	2600      	movs	r6, #0
    2ca2:	9302      	str	r3, [sp, #8]
    2ca4:	e7cd      	b.n	2c42 <__aeabi_ddiv+0x46>
    2ca6:	4643      	mov	r3, r8
    2ca8:	46b3      	mov	fp, r6
    2caa:	4649      	mov	r1, r9
    2cac:	9300      	str	r3, [sp, #0]
    2cae:	9b02      	ldr	r3, [sp, #8]
    2cb0:	9a00      	ldr	r2, [sp, #0]
    2cb2:	4692      	mov	sl, r2
    2cb4:	2b02      	cmp	r3, #2
    2cb6:	d000      	beq.n	2cba <__aeabi_ddiv+0xbe>
    2cb8:	e1bf      	b.n	303a <__aeabi_ddiv+0x43e>
    2cba:	2100      	movs	r1, #0
    2cbc:	4653      	mov	r3, sl
    2cbe:	2201      	movs	r2, #1
    2cc0:	2600      	movs	r6, #0
    2cc2:	4689      	mov	r9, r1
    2cc4:	401a      	ands	r2, r3
    2cc6:	4b44      	ldr	r3, [pc, #272]	; (2dd8 <__aeabi_ddiv+0x1dc>)
    2cc8:	2100      	movs	r1, #0
    2cca:	0336      	lsls	r6, r6, #12
    2ccc:	0d0c      	lsrs	r4, r1, #20
    2cce:	0524      	lsls	r4, r4, #20
    2cd0:	0b36      	lsrs	r6, r6, #12
    2cd2:	4326      	orrs	r6, r4
    2cd4:	4c43      	ldr	r4, [pc, #268]	; (2de4 <__aeabi_ddiv+0x1e8>)
    2cd6:	051b      	lsls	r3, r3, #20
    2cd8:	4026      	ands	r6, r4
    2cda:	431e      	orrs	r6, r3
    2cdc:	0076      	lsls	r6, r6, #1
    2cde:	07d2      	lsls	r2, r2, #31
    2ce0:	0876      	lsrs	r6, r6, #1
    2ce2:	4316      	orrs	r6, r2
    2ce4:	4648      	mov	r0, r9
    2ce6:	0031      	movs	r1, r6
    2ce8:	b007      	add	sp, #28
    2cea:	bc3c      	pop	{r2, r3, r4, r5}
    2cec:	4690      	mov	r8, r2
    2cee:	4699      	mov	r9, r3
    2cf0:	46a2      	mov	sl, r4
    2cf2:	46ab      	mov	fp, r5
    2cf4:	bdf0      	pop	{r4, r5, r6, r7, pc}
    2cf6:	0033      	movs	r3, r6
    2cf8:	4303      	orrs	r3, r0
    2cfa:	d04f      	beq.n	2d9c <__aeabi_ddiv+0x1a0>
    2cfc:	2e00      	cmp	r6, #0
    2cfe:	d100      	bne.n	2d02 <__aeabi_ddiv+0x106>
    2d00:	e1bc      	b.n	307c <__aeabi_ddiv+0x480>
    2d02:	0030      	movs	r0, r6
    2d04:	f001 f8cc 	bl	3ea0 <__clzsi2>
    2d08:	0003      	movs	r3, r0
    2d0a:	3b0b      	subs	r3, #11
    2d0c:	2b1c      	cmp	r3, #28
    2d0e:	dd00      	ble.n	2d12 <__aeabi_ddiv+0x116>
    2d10:	e1ad      	b.n	306e <__aeabi_ddiv+0x472>
    2d12:	221d      	movs	r2, #29
    2d14:	0001      	movs	r1, r0
    2d16:	1ad3      	subs	r3, r2, r3
    2d18:	3908      	subs	r1, #8
    2d1a:	003a      	movs	r2, r7
    2d1c:	408f      	lsls	r7, r1
    2d1e:	408e      	lsls	r6, r1
    2d20:	40da      	lsrs	r2, r3
    2d22:	46b9      	mov	r9, r7
    2d24:	4316      	orrs	r6, r2
    2d26:	4b30      	ldr	r3, [pc, #192]	; (2de8 <__aeabi_ddiv+0x1ec>)
    2d28:	2700      	movs	r7, #0
    2d2a:	469c      	mov	ip, r3
    2d2c:	2300      	movs	r3, #0
    2d2e:	4460      	add	r0, ip
    2d30:	4244      	negs	r4, r0
    2d32:	9302      	str	r3, [sp, #8]
    2d34:	e785      	b.n	2c42 <__aeabi_ddiv+0x46>
    2d36:	4653      	mov	r3, sl
    2d38:	465a      	mov	r2, fp
    2d3a:	4313      	orrs	r3, r2
    2d3c:	d12c      	bne.n	2d98 <__aeabi_ddiv+0x19c>
    2d3e:	2300      	movs	r3, #0
    2d40:	2100      	movs	r1, #0
    2d42:	469b      	mov	fp, r3
    2d44:	3302      	adds	r3, #2
    2d46:	e797      	b.n	2c78 <__aeabi_ddiv+0x7c>
    2d48:	430b      	orrs	r3, r1
    2d4a:	d020      	beq.n	2d8e <__aeabi_ddiv+0x192>
    2d4c:	465b      	mov	r3, fp
    2d4e:	2b00      	cmp	r3, #0
    2d50:	d100      	bne.n	2d54 <__aeabi_ddiv+0x158>
    2d52:	e19e      	b.n	3092 <__aeabi_ddiv+0x496>
    2d54:	4658      	mov	r0, fp
    2d56:	f001 f8a3 	bl	3ea0 <__clzsi2>
    2d5a:	0003      	movs	r3, r0
    2d5c:	3b0b      	subs	r3, #11
    2d5e:	2b1c      	cmp	r3, #28
    2d60:	dd00      	ble.n	2d64 <__aeabi_ddiv+0x168>
    2d62:	e18f      	b.n	3084 <__aeabi_ddiv+0x488>
    2d64:	0002      	movs	r2, r0
    2d66:	4659      	mov	r1, fp
    2d68:	3a08      	subs	r2, #8
    2d6a:	4091      	lsls	r1, r2
    2d6c:	468b      	mov	fp, r1
    2d6e:	211d      	movs	r1, #29
    2d70:	1acb      	subs	r3, r1, r3
    2d72:	4651      	mov	r1, sl
    2d74:	40d9      	lsrs	r1, r3
    2d76:	000b      	movs	r3, r1
    2d78:	4659      	mov	r1, fp
    2d7a:	430b      	orrs	r3, r1
    2d7c:	4651      	mov	r1, sl
    2d7e:	469b      	mov	fp, r3
    2d80:	4091      	lsls	r1, r2
    2d82:	4b19      	ldr	r3, [pc, #100]	; (2de8 <__aeabi_ddiv+0x1ec>)
    2d84:	469c      	mov	ip, r3
    2d86:	4460      	add	r0, ip
    2d88:	4240      	negs	r0, r0
    2d8a:	2300      	movs	r3, #0
    2d8c:	e774      	b.n	2c78 <__aeabi_ddiv+0x7c>
    2d8e:	2300      	movs	r3, #0
    2d90:	2100      	movs	r1, #0
    2d92:	469b      	mov	fp, r3
    2d94:	3301      	adds	r3, #1
    2d96:	e76f      	b.n	2c78 <__aeabi_ddiv+0x7c>
    2d98:	2303      	movs	r3, #3
    2d9a:	e76d      	b.n	2c78 <__aeabi_ddiv+0x7c>
    2d9c:	2300      	movs	r3, #0
    2d9e:	4699      	mov	r9, r3
    2da0:	3301      	adds	r3, #1
    2da2:	2704      	movs	r7, #4
    2da4:	2600      	movs	r6, #0
    2da6:	9302      	str	r3, [sp, #8]
    2da8:	e74b      	b.n	2c42 <__aeabi_ddiv+0x46>
    2daa:	2303      	movs	r3, #3
    2dac:	270c      	movs	r7, #12
    2dae:	9302      	str	r3, [sp, #8]
    2db0:	e747      	b.n	2c42 <__aeabi_ddiv+0x46>
    2db2:	2201      	movs	r2, #1
    2db4:	1ad5      	subs	r5, r2, r3
    2db6:	2d38      	cmp	r5, #56	; 0x38
    2db8:	dc00      	bgt.n	2dbc <__aeabi_ddiv+0x1c0>
    2dba:	e1b0      	b.n	311e <__aeabi_ddiv+0x522>
    2dbc:	4653      	mov	r3, sl
    2dbe:	401a      	ands	r2, r3
    2dc0:	2100      	movs	r1, #0
    2dc2:	2300      	movs	r3, #0
    2dc4:	2600      	movs	r6, #0
    2dc6:	4689      	mov	r9, r1
    2dc8:	e77e      	b.n	2cc8 <__aeabi_ddiv+0xcc>
    2dca:	2300      	movs	r3, #0
    2dcc:	2680      	movs	r6, #128	; 0x80
    2dce:	4699      	mov	r9, r3
    2dd0:	2200      	movs	r2, #0
    2dd2:	0336      	lsls	r6, r6, #12
    2dd4:	4b00      	ldr	r3, [pc, #0]	; (2dd8 <__aeabi_ddiv+0x1dc>)
    2dd6:	e777      	b.n	2cc8 <__aeabi_ddiv+0xcc>
    2dd8:	000007ff 	.word	0x000007ff
    2ddc:	fffffc01 	.word	0xfffffc01
    2de0:	00005174 	.word	0x00005174
    2de4:	800fffff 	.word	0x800fffff
    2de8:	000003f3 	.word	0x000003f3
    2dec:	455e      	cmp	r6, fp
    2dee:	d900      	bls.n	2df2 <__aeabi_ddiv+0x1f6>
    2df0:	e172      	b.n	30d8 <__aeabi_ddiv+0x4dc>
    2df2:	d100      	bne.n	2df6 <__aeabi_ddiv+0x1fa>
    2df4:	e16d      	b.n	30d2 <__aeabi_ddiv+0x4d6>
    2df6:	9b01      	ldr	r3, [sp, #4]
    2df8:	464d      	mov	r5, r9
    2dfa:	3b01      	subs	r3, #1
    2dfc:	9301      	str	r3, [sp, #4]
    2dfe:	2300      	movs	r3, #0
    2e00:	0034      	movs	r4, r6
    2e02:	9302      	str	r3, [sp, #8]
    2e04:	465b      	mov	r3, fp
    2e06:	021e      	lsls	r6, r3, #8
    2e08:	0e0b      	lsrs	r3, r1, #24
    2e0a:	431e      	orrs	r6, r3
    2e0c:	020b      	lsls	r3, r1, #8
    2e0e:	9303      	str	r3, [sp, #12]
    2e10:	0c33      	lsrs	r3, r6, #16
    2e12:	4699      	mov	r9, r3
    2e14:	0433      	lsls	r3, r6, #16
    2e16:	0c1b      	lsrs	r3, r3, #16
    2e18:	4649      	mov	r1, r9
    2e1a:	0020      	movs	r0, r4
    2e1c:	9300      	str	r3, [sp, #0]
    2e1e:	f7ff fb09 	bl	2434 <__aeabi_uidiv>
    2e22:	9b00      	ldr	r3, [sp, #0]
    2e24:	0037      	movs	r7, r6
    2e26:	4343      	muls	r3, r0
    2e28:	0006      	movs	r6, r0
    2e2a:	4649      	mov	r1, r9
    2e2c:	0020      	movs	r0, r4
    2e2e:	4698      	mov	r8, r3
    2e30:	f7ff fb86 	bl	2540 <__aeabi_uidivmod>
    2e34:	0c2c      	lsrs	r4, r5, #16
    2e36:	0409      	lsls	r1, r1, #16
    2e38:	430c      	orrs	r4, r1
    2e3a:	45a0      	cmp	r8, r4
    2e3c:	d909      	bls.n	2e52 <__aeabi_ddiv+0x256>
    2e3e:	19e4      	adds	r4, r4, r7
    2e40:	1e73      	subs	r3, r6, #1
    2e42:	42a7      	cmp	r7, r4
    2e44:	d900      	bls.n	2e48 <__aeabi_ddiv+0x24c>
    2e46:	e15c      	b.n	3102 <__aeabi_ddiv+0x506>
    2e48:	45a0      	cmp	r8, r4
    2e4a:	d800      	bhi.n	2e4e <__aeabi_ddiv+0x252>
    2e4c:	e159      	b.n	3102 <__aeabi_ddiv+0x506>
    2e4e:	3e02      	subs	r6, #2
    2e50:	19e4      	adds	r4, r4, r7
    2e52:	4643      	mov	r3, r8
    2e54:	1ae4      	subs	r4, r4, r3
    2e56:	4649      	mov	r1, r9
    2e58:	0020      	movs	r0, r4
    2e5a:	f7ff faeb 	bl	2434 <__aeabi_uidiv>
    2e5e:	0003      	movs	r3, r0
    2e60:	9a00      	ldr	r2, [sp, #0]
    2e62:	4680      	mov	r8, r0
    2e64:	4353      	muls	r3, r2
    2e66:	4649      	mov	r1, r9
    2e68:	0020      	movs	r0, r4
    2e6a:	469b      	mov	fp, r3
    2e6c:	f7ff fb68 	bl	2540 <__aeabi_uidivmod>
    2e70:	042a      	lsls	r2, r5, #16
    2e72:	0409      	lsls	r1, r1, #16
    2e74:	0c12      	lsrs	r2, r2, #16
    2e76:	430a      	orrs	r2, r1
    2e78:	4593      	cmp	fp, r2
    2e7a:	d90d      	bls.n	2e98 <__aeabi_ddiv+0x29c>
    2e7c:	4643      	mov	r3, r8
    2e7e:	19d2      	adds	r2, r2, r7
    2e80:	3b01      	subs	r3, #1
    2e82:	4297      	cmp	r7, r2
    2e84:	d900      	bls.n	2e88 <__aeabi_ddiv+0x28c>
    2e86:	e13a      	b.n	30fe <__aeabi_ddiv+0x502>
    2e88:	4593      	cmp	fp, r2
    2e8a:	d800      	bhi.n	2e8e <__aeabi_ddiv+0x292>
    2e8c:	e137      	b.n	30fe <__aeabi_ddiv+0x502>
    2e8e:	2302      	movs	r3, #2
    2e90:	425b      	negs	r3, r3
    2e92:	469c      	mov	ip, r3
    2e94:	19d2      	adds	r2, r2, r7
    2e96:	44e0      	add	r8, ip
    2e98:	465b      	mov	r3, fp
    2e9a:	1ad2      	subs	r2, r2, r3
    2e9c:	4643      	mov	r3, r8
    2e9e:	0436      	lsls	r6, r6, #16
    2ea0:	4333      	orrs	r3, r6
    2ea2:	469b      	mov	fp, r3
    2ea4:	9903      	ldr	r1, [sp, #12]
    2ea6:	0c18      	lsrs	r0, r3, #16
    2ea8:	0c0b      	lsrs	r3, r1, #16
    2eaa:	001d      	movs	r5, r3
    2eac:	9305      	str	r3, [sp, #20]
    2eae:	0409      	lsls	r1, r1, #16
    2eb0:	465b      	mov	r3, fp
    2eb2:	0c09      	lsrs	r1, r1, #16
    2eb4:	000c      	movs	r4, r1
    2eb6:	041b      	lsls	r3, r3, #16
    2eb8:	0c1b      	lsrs	r3, r3, #16
    2eba:	4344      	muls	r4, r0
    2ebc:	9104      	str	r1, [sp, #16]
    2ebe:	4359      	muls	r1, r3
    2ec0:	436b      	muls	r3, r5
    2ec2:	4368      	muls	r0, r5
    2ec4:	191b      	adds	r3, r3, r4
    2ec6:	0c0d      	lsrs	r5, r1, #16
    2ec8:	18eb      	adds	r3, r5, r3
    2eca:	429c      	cmp	r4, r3
    2ecc:	d903      	bls.n	2ed6 <__aeabi_ddiv+0x2da>
    2ece:	2480      	movs	r4, #128	; 0x80
    2ed0:	0264      	lsls	r4, r4, #9
    2ed2:	46a4      	mov	ip, r4
    2ed4:	4460      	add	r0, ip
    2ed6:	0c1c      	lsrs	r4, r3, #16
    2ed8:	0409      	lsls	r1, r1, #16
    2eda:	041b      	lsls	r3, r3, #16
    2edc:	0c09      	lsrs	r1, r1, #16
    2ede:	1820      	adds	r0, r4, r0
    2ee0:	185d      	adds	r5, r3, r1
    2ee2:	4282      	cmp	r2, r0
    2ee4:	d200      	bcs.n	2ee8 <__aeabi_ddiv+0x2ec>
    2ee6:	e0de      	b.n	30a6 <__aeabi_ddiv+0x4aa>
    2ee8:	d100      	bne.n	2eec <__aeabi_ddiv+0x2f0>
    2eea:	e0d7      	b.n	309c <__aeabi_ddiv+0x4a0>
    2eec:	1a16      	subs	r6, r2, r0
    2eee:	9b02      	ldr	r3, [sp, #8]
    2ef0:	469c      	mov	ip, r3
    2ef2:	1b5d      	subs	r5, r3, r5
    2ef4:	45ac      	cmp	ip, r5
    2ef6:	419b      	sbcs	r3, r3
    2ef8:	425b      	negs	r3, r3
    2efa:	1af6      	subs	r6, r6, r3
    2efc:	42b7      	cmp	r7, r6
    2efe:	d100      	bne.n	2f02 <__aeabi_ddiv+0x306>
    2f00:	e106      	b.n	3110 <__aeabi_ddiv+0x514>
    2f02:	4649      	mov	r1, r9
    2f04:	0030      	movs	r0, r6
    2f06:	f7ff fa95 	bl	2434 <__aeabi_uidiv>
    2f0a:	9b00      	ldr	r3, [sp, #0]
    2f0c:	0004      	movs	r4, r0
    2f0e:	4343      	muls	r3, r0
    2f10:	4649      	mov	r1, r9
    2f12:	0030      	movs	r0, r6
    2f14:	4698      	mov	r8, r3
    2f16:	f7ff fb13 	bl	2540 <__aeabi_uidivmod>
    2f1a:	0c2e      	lsrs	r6, r5, #16
    2f1c:	0409      	lsls	r1, r1, #16
    2f1e:	430e      	orrs	r6, r1
    2f20:	45b0      	cmp	r8, r6
    2f22:	d909      	bls.n	2f38 <__aeabi_ddiv+0x33c>
    2f24:	19f6      	adds	r6, r6, r7
    2f26:	1e63      	subs	r3, r4, #1
    2f28:	42b7      	cmp	r7, r6
    2f2a:	d900      	bls.n	2f2e <__aeabi_ddiv+0x332>
    2f2c:	e0f3      	b.n	3116 <__aeabi_ddiv+0x51a>
    2f2e:	45b0      	cmp	r8, r6
    2f30:	d800      	bhi.n	2f34 <__aeabi_ddiv+0x338>
    2f32:	e0f0      	b.n	3116 <__aeabi_ddiv+0x51a>
    2f34:	3c02      	subs	r4, #2
    2f36:	19f6      	adds	r6, r6, r7
    2f38:	4643      	mov	r3, r8
    2f3a:	1af3      	subs	r3, r6, r3
    2f3c:	4649      	mov	r1, r9
    2f3e:	0018      	movs	r0, r3
    2f40:	9302      	str	r3, [sp, #8]
    2f42:	f7ff fa77 	bl	2434 <__aeabi_uidiv>
    2f46:	9b00      	ldr	r3, [sp, #0]
    2f48:	0006      	movs	r6, r0
    2f4a:	4343      	muls	r3, r0
    2f4c:	4649      	mov	r1, r9
    2f4e:	9802      	ldr	r0, [sp, #8]
    2f50:	4698      	mov	r8, r3
    2f52:	f7ff faf5 	bl	2540 <__aeabi_uidivmod>
    2f56:	042d      	lsls	r5, r5, #16
    2f58:	0409      	lsls	r1, r1, #16
    2f5a:	0c2d      	lsrs	r5, r5, #16
    2f5c:	430d      	orrs	r5, r1
    2f5e:	45a8      	cmp	r8, r5
    2f60:	d909      	bls.n	2f76 <__aeabi_ddiv+0x37a>
    2f62:	19ed      	adds	r5, r5, r7
    2f64:	1e73      	subs	r3, r6, #1
    2f66:	42af      	cmp	r7, r5
    2f68:	d900      	bls.n	2f6c <__aeabi_ddiv+0x370>
    2f6a:	e0d6      	b.n	311a <__aeabi_ddiv+0x51e>
    2f6c:	45a8      	cmp	r8, r5
    2f6e:	d800      	bhi.n	2f72 <__aeabi_ddiv+0x376>
    2f70:	e0d3      	b.n	311a <__aeabi_ddiv+0x51e>
    2f72:	3e02      	subs	r6, #2
    2f74:	19ed      	adds	r5, r5, r7
    2f76:	0424      	lsls	r4, r4, #16
    2f78:	0021      	movs	r1, r4
    2f7a:	4643      	mov	r3, r8
    2f7c:	4331      	orrs	r1, r6
    2f7e:	9e04      	ldr	r6, [sp, #16]
    2f80:	9a05      	ldr	r2, [sp, #20]
    2f82:	0030      	movs	r0, r6
    2f84:	1aed      	subs	r5, r5, r3
    2f86:	040b      	lsls	r3, r1, #16
    2f88:	0c0c      	lsrs	r4, r1, #16
    2f8a:	0c1b      	lsrs	r3, r3, #16
    2f8c:	4358      	muls	r0, r3
    2f8e:	4366      	muls	r6, r4
    2f90:	4353      	muls	r3, r2
    2f92:	4354      	muls	r4, r2
    2f94:	199a      	adds	r2, r3, r6
    2f96:	0c03      	lsrs	r3, r0, #16
    2f98:	189b      	adds	r3, r3, r2
    2f9a:	429e      	cmp	r6, r3
    2f9c:	d903      	bls.n	2fa6 <__aeabi_ddiv+0x3aa>
    2f9e:	2280      	movs	r2, #128	; 0x80
    2fa0:	0252      	lsls	r2, r2, #9
    2fa2:	4694      	mov	ip, r2
    2fa4:	4464      	add	r4, ip
    2fa6:	0c1a      	lsrs	r2, r3, #16
    2fa8:	0400      	lsls	r0, r0, #16
    2faa:	041b      	lsls	r3, r3, #16
    2fac:	0c00      	lsrs	r0, r0, #16
    2fae:	1914      	adds	r4, r2, r4
    2fb0:	181b      	adds	r3, r3, r0
    2fb2:	42a5      	cmp	r5, r4
    2fb4:	d350      	bcc.n	3058 <__aeabi_ddiv+0x45c>
    2fb6:	d04d      	beq.n	3054 <__aeabi_ddiv+0x458>
    2fb8:	2301      	movs	r3, #1
    2fba:	4319      	orrs	r1, r3
    2fbc:	4a96      	ldr	r2, [pc, #600]	; (3218 <__aeabi_ddiv+0x61c>)
    2fbe:	9b01      	ldr	r3, [sp, #4]
    2fc0:	4694      	mov	ip, r2
    2fc2:	4463      	add	r3, ip
    2fc4:	2b00      	cmp	r3, #0
    2fc6:	dc00      	bgt.n	2fca <__aeabi_ddiv+0x3ce>
    2fc8:	e6f3      	b.n	2db2 <__aeabi_ddiv+0x1b6>
    2fca:	074a      	lsls	r2, r1, #29
    2fcc:	d009      	beq.n	2fe2 <__aeabi_ddiv+0x3e6>
    2fce:	220f      	movs	r2, #15
    2fd0:	400a      	ands	r2, r1
    2fd2:	2a04      	cmp	r2, #4
    2fd4:	d005      	beq.n	2fe2 <__aeabi_ddiv+0x3e6>
    2fd6:	1d0a      	adds	r2, r1, #4
    2fd8:	428a      	cmp	r2, r1
    2fda:	4189      	sbcs	r1, r1
    2fdc:	4249      	negs	r1, r1
    2fde:	448b      	add	fp, r1
    2fe0:	0011      	movs	r1, r2
    2fe2:	465a      	mov	r2, fp
    2fe4:	01d2      	lsls	r2, r2, #7
    2fe6:	d508      	bpl.n	2ffa <__aeabi_ddiv+0x3fe>
    2fe8:	465a      	mov	r2, fp
    2fea:	4b8c      	ldr	r3, [pc, #560]	; (321c <__aeabi_ddiv+0x620>)
    2fec:	401a      	ands	r2, r3
    2fee:	4693      	mov	fp, r2
    2ff0:	2280      	movs	r2, #128	; 0x80
    2ff2:	00d2      	lsls	r2, r2, #3
    2ff4:	4694      	mov	ip, r2
    2ff6:	9b01      	ldr	r3, [sp, #4]
    2ff8:	4463      	add	r3, ip
    2ffa:	4a89      	ldr	r2, [pc, #548]	; (3220 <__aeabi_ddiv+0x624>)
    2ffc:	4293      	cmp	r3, r2
    2ffe:	dd00      	ble.n	3002 <__aeabi_ddiv+0x406>
    3000:	e65b      	b.n	2cba <__aeabi_ddiv+0xbe>
    3002:	465a      	mov	r2, fp
    3004:	08c9      	lsrs	r1, r1, #3
    3006:	0750      	lsls	r0, r2, #29
    3008:	4308      	orrs	r0, r1
    300a:	0256      	lsls	r6, r2, #9
    300c:	4651      	mov	r1, sl
    300e:	2201      	movs	r2, #1
    3010:	055b      	lsls	r3, r3, #21
    3012:	4681      	mov	r9, r0
    3014:	0b36      	lsrs	r6, r6, #12
    3016:	0d5b      	lsrs	r3, r3, #21
    3018:	400a      	ands	r2, r1
    301a:	e655      	b.n	2cc8 <__aeabi_ddiv+0xcc>
    301c:	2380      	movs	r3, #128	; 0x80
    301e:	031b      	lsls	r3, r3, #12
    3020:	421e      	tst	r6, r3
    3022:	d011      	beq.n	3048 <__aeabi_ddiv+0x44c>
    3024:	465a      	mov	r2, fp
    3026:	421a      	tst	r2, r3
    3028:	d10e      	bne.n	3048 <__aeabi_ddiv+0x44c>
    302a:	465e      	mov	r6, fp
    302c:	431e      	orrs	r6, r3
    302e:	0336      	lsls	r6, r6, #12
    3030:	0b36      	lsrs	r6, r6, #12
    3032:	002a      	movs	r2, r5
    3034:	4689      	mov	r9, r1
    3036:	4b7b      	ldr	r3, [pc, #492]	; (3224 <__aeabi_ddiv+0x628>)
    3038:	e646      	b.n	2cc8 <__aeabi_ddiv+0xcc>
    303a:	2b03      	cmp	r3, #3
    303c:	d100      	bne.n	3040 <__aeabi_ddiv+0x444>
    303e:	e0e1      	b.n	3204 <__aeabi_ddiv+0x608>
    3040:	2b01      	cmp	r3, #1
    3042:	d1bb      	bne.n	2fbc <__aeabi_ddiv+0x3c0>
    3044:	401a      	ands	r2, r3
    3046:	e6bb      	b.n	2dc0 <__aeabi_ddiv+0x1c4>
    3048:	431e      	orrs	r6, r3
    304a:	0336      	lsls	r6, r6, #12
    304c:	0b36      	lsrs	r6, r6, #12
    304e:	4642      	mov	r2, r8
    3050:	4b74      	ldr	r3, [pc, #464]	; (3224 <__aeabi_ddiv+0x628>)
    3052:	e639      	b.n	2cc8 <__aeabi_ddiv+0xcc>
    3054:	2b00      	cmp	r3, #0
    3056:	d0b1      	beq.n	2fbc <__aeabi_ddiv+0x3c0>
    3058:	197d      	adds	r5, r7, r5
    305a:	1e4a      	subs	r2, r1, #1
    305c:	42af      	cmp	r7, r5
    305e:	d952      	bls.n	3106 <__aeabi_ddiv+0x50a>
    3060:	0011      	movs	r1, r2
    3062:	42a5      	cmp	r5, r4
    3064:	d1a8      	bne.n	2fb8 <__aeabi_ddiv+0x3bc>
    3066:	9a03      	ldr	r2, [sp, #12]
    3068:	429a      	cmp	r2, r3
    306a:	d1a5      	bne.n	2fb8 <__aeabi_ddiv+0x3bc>
    306c:	e7a6      	b.n	2fbc <__aeabi_ddiv+0x3c0>
    306e:	0003      	movs	r3, r0
    3070:	003e      	movs	r6, r7
    3072:	3b28      	subs	r3, #40	; 0x28
    3074:	409e      	lsls	r6, r3
    3076:	2300      	movs	r3, #0
    3078:	4699      	mov	r9, r3
    307a:	e654      	b.n	2d26 <__aeabi_ddiv+0x12a>
    307c:	f000 ff10 	bl	3ea0 <__clzsi2>
    3080:	3020      	adds	r0, #32
    3082:	e641      	b.n	2d08 <__aeabi_ddiv+0x10c>
    3084:	0003      	movs	r3, r0
    3086:	4652      	mov	r2, sl
    3088:	3b28      	subs	r3, #40	; 0x28
    308a:	409a      	lsls	r2, r3
    308c:	2100      	movs	r1, #0
    308e:	4693      	mov	fp, r2
    3090:	e677      	b.n	2d82 <__aeabi_ddiv+0x186>
    3092:	4650      	mov	r0, sl
    3094:	f000 ff04 	bl	3ea0 <__clzsi2>
    3098:	3020      	adds	r0, #32
    309a:	e65e      	b.n	2d5a <__aeabi_ddiv+0x15e>
    309c:	9b02      	ldr	r3, [sp, #8]
    309e:	2600      	movs	r6, #0
    30a0:	42ab      	cmp	r3, r5
    30a2:	d300      	bcc.n	30a6 <__aeabi_ddiv+0x4aa>
    30a4:	e723      	b.n	2eee <__aeabi_ddiv+0x2f2>
    30a6:	9e03      	ldr	r6, [sp, #12]
    30a8:	9902      	ldr	r1, [sp, #8]
    30aa:	46b4      	mov	ip, r6
    30ac:	4461      	add	r1, ip
    30ae:	4688      	mov	r8, r1
    30b0:	45b0      	cmp	r8, r6
    30b2:	41b6      	sbcs	r6, r6
    30b4:	465b      	mov	r3, fp
    30b6:	4276      	negs	r6, r6
    30b8:	19f6      	adds	r6, r6, r7
    30ba:	18b2      	adds	r2, r6, r2
    30bc:	3b01      	subs	r3, #1
    30be:	9102      	str	r1, [sp, #8]
    30c0:	4297      	cmp	r7, r2
    30c2:	d213      	bcs.n	30ec <__aeabi_ddiv+0x4f0>
    30c4:	4290      	cmp	r0, r2
    30c6:	d84f      	bhi.n	3168 <__aeabi_ddiv+0x56c>
    30c8:	d100      	bne.n	30cc <__aeabi_ddiv+0x4d0>
    30ca:	e08e      	b.n	31ea <__aeabi_ddiv+0x5ee>
    30cc:	1a16      	subs	r6, r2, r0
    30ce:	469b      	mov	fp, r3
    30d0:	e70d      	b.n	2eee <__aeabi_ddiv+0x2f2>
    30d2:	4589      	cmp	r9, r1
    30d4:	d200      	bcs.n	30d8 <__aeabi_ddiv+0x4dc>
    30d6:	e68e      	b.n	2df6 <__aeabi_ddiv+0x1fa>
    30d8:	0874      	lsrs	r4, r6, #1
    30da:	464b      	mov	r3, r9
    30dc:	07f6      	lsls	r6, r6, #31
    30de:	0035      	movs	r5, r6
    30e0:	085b      	lsrs	r3, r3, #1
    30e2:	431d      	orrs	r5, r3
    30e4:	464b      	mov	r3, r9
    30e6:	07db      	lsls	r3, r3, #31
    30e8:	9302      	str	r3, [sp, #8]
    30ea:	e68b      	b.n	2e04 <__aeabi_ddiv+0x208>
    30ec:	4297      	cmp	r7, r2
    30ee:	d1ed      	bne.n	30cc <__aeabi_ddiv+0x4d0>
    30f0:	9903      	ldr	r1, [sp, #12]
    30f2:	9c02      	ldr	r4, [sp, #8]
    30f4:	42a1      	cmp	r1, r4
    30f6:	d9e5      	bls.n	30c4 <__aeabi_ddiv+0x4c8>
    30f8:	1a3e      	subs	r6, r7, r0
    30fa:	469b      	mov	fp, r3
    30fc:	e6f7      	b.n	2eee <__aeabi_ddiv+0x2f2>
    30fe:	4698      	mov	r8, r3
    3100:	e6ca      	b.n	2e98 <__aeabi_ddiv+0x29c>
    3102:	001e      	movs	r6, r3
    3104:	e6a5      	b.n	2e52 <__aeabi_ddiv+0x256>
    3106:	42ac      	cmp	r4, r5
    3108:	d83e      	bhi.n	3188 <__aeabi_ddiv+0x58c>
    310a:	d074      	beq.n	31f6 <__aeabi_ddiv+0x5fa>
    310c:	0011      	movs	r1, r2
    310e:	e753      	b.n	2fb8 <__aeabi_ddiv+0x3bc>
    3110:	2101      	movs	r1, #1
    3112:	4249      	negs	r1, r1
    3114:	e752      	b.n	2fbc <__aeabi_ddiv+0x3c0>
    3116:	001c      	movs	r4, r3
    3118:	e70e      	b.n	2f38 <__aeabi_ddiv+0x33c>
    311a:	001e      	movs	r6, r3
    311c:	e72b      	b.n	2f76 <__aeabi_ddiv+0x37a>
    311e:	2d1f      	cmp	r5, #31
    3120:	dc3c      	bgt.n	319c <__aeabi_ddiv+0x5a0>
    3122:	2320      	movs	r3, #32
    3124:	000a      	movs	r2, r1
    3126:	4658      	mov	r0, fp
    3128:	1b5b      	subs	r3, r3, r5
    312a:	4098      	lsls	r0, r3
    312c:	40ea      	lsrs	r2, r5
    312e:	4099      	lsls	r1, r3
    3130:	4302      	orrs	r2, r0
    3132:	1e48      	subs	r0, r1, #1
    3134:	4181      	sbcs	r1, r0
    3136:	465e      	mov	r6, fp
    3138:	4311      	orrs	r1, r2
    313a:	40ee      	lsrs	r6, r5
    313c:	074b      	lsls	r3, r1, #29
    313e:	d009      	beq.n	3154 <__aeabi_ddiv+0x558>
    3140:	230f      	movs	r3, #15
    3142:	400b      	ands	r3, r1
    3144:	2b04      	cmp	r3, #4
    3146:	d005      	beq.n	3154 <__aeabi_ddiv+0x558>
    3148:	000b      	movs	r3, r1
    314a:	1d19      	adds	r1, r3, #4
    314c:	4299      	cmp	r1, r3
    314e:	419b      	sbcs	r3, r3
    3150:	425b      	negs	r3, r3
    3152:	18f6      	adds	r6, r6, r3
    3154:	0233      	lsls	r3, r6, #8
    3156:	d53c      	bpl.n	31d2 <__aeabi_ddiv+0x5d6>
    3158:	4653      	mov	r3, sl
    315a:	2201      	movs	r2, #1
    315c:	2100      	movs	r1, #0
    315e:	401a      	ands	r2, r3
    3160:	2600      	movs	r6, #0
    3162:	2301      	movs	r3, #1
    3164:	4689      	mov	r9, r1
    3166:	e5af      	b.n	2cc8 <__aeabi_ddiv+0xcc>
    3168:	2302      	movs	r3, #2
    316a:	425b      	negs	r3, r3
    316c:	469c      	mov	ip, r3
    316e:	9c03      	ldr	r4, [sp, #12]
    3170:	44e3      	add	fp, ip
    3172:	46a4      	mov	ip, r4
    3174:	9b02      	ldr	r3, [sp, #8]
    3176:	4463      	add	r3, ip
    3178:	4698      	mov	r8, r3
    317a:	45a0      	cmp	r8, r4
    317c:	41b6      	sbcs	r6, r6
    317e:	4276      	negs	r6, r6
    3180:	19f6      	adds	r6, r6, r7
    3182:	9302      	str	r3, [sp, #8]
    3184:	18b2      	adds	r2, r6, r2
    3186:	e6b1      	b.n	2eec <__aeabi_ddiv+0x2f0>
    3188:	9803      	ldr	r0, [sp, #12]
    318a:	1e8a      	subs	r2, r1, #2
    318c:	0041      	lsls	r1, r0, #1
    318e:	4281      	cmp	r1, r0
    3190:	41b6      	sbcs	r6, r6
    3192:	4276      	negs	r6, r6
    3194:	19f6      	adds	r6, r6, r7
    3196:	19ad      	adds	r5, r5, r6
    3198:	9103      	str	r1, [sp, #12]
    319a:	e761      	b.n	3060 <__aeabi_ddiv+0x464>
    319c:	221f      	movs	r2, #31
    319e:	4252      	negs	r2, r2
    31a0:	1ad3      	subs	r3, r2, r3
    31a2:	465a      	mov	r2, fp
    31a4:	40da      	lsrs	r2, r3
    31a6:	0013      	movs	r3, r2
    31a8:	2d20      	cmp	r5, #32
    31aa:	d029      	beq.n	3200 <__aeabi_ddiv+0x604>
    31ac:	2240      	movs	r2, #64	; 0x40
    31ae:	4658      	mov	r0, fp
    31b0:	1b55      	subs	r5, r2, r5
    31b2:	40a8      	lsls	r0, r5
    31b4:	4301      	orrs	r1, r0
    31b6:	1e48      	subs	r0, r1, #1
    31b8:	4181      	sbcs	r1, r0
    31ba:	2007      	movs	r0, #7
    31bc:	430b      	orrs	r3, r1
    31be:	4018      	ands	r0, r3
    31c0:	2600      	movs	r6, #0
    31c2:	2800      	cmp	r0, #0
    31c4:	d009      	beq.n	31da <__aeabi_ddiv+0x5de>
    31c6:	220f      	movs	r2, #15
    31c8:	2600      	movs	r6, #0
    31ca:	401a      	ands	r2, r3
    31cc:	0019      	movs	r1, r3
    31ce:	2a04      	cmp	r2, #4
    31d0:	d1bb      	bne.n	314a <__aeabi_ddiv+0x54e>
    31d2:	000b      	movs	r3, r1
    31d4:	0770      	lsls	r0, r6, #29
    31d6:	0276      	lsls	r6, r6, #9
    31d8:	0b36      	lsrs	r6, r6, #12
    31da:	08db      	lsrs	r3, r3, #3
    31dc:	4303      	orrs	r3, r0
    31de:	4699      	mov	r9, r3
    31e0:	2201      	movs	r2, #1
    31e2:	4653      	mov	r3, sl
    31e4:	401a      	ands	r2, r3
    31e6:	2300      	movs	r3, #0
    31e8:	e56e      	b.n	2cc8 <__aeabi_ddiv+0xcc>
    31ea:	9902      	ldr	r1, [sp, #8]
    31ec:	428d      	cmp	r5, r1
    31ee:	d8bb      	bhi.n	3168 <__aeabi_ddiv+0x56c>
    31f0:	469b      	mov	fp, r3
    31f2:	2600      	movs	r6, #0
    31f4:	e67b      	b.n	2eee <__aeabi_ddiv+0x2f2>
    31f6:	9803      	ldr	r0, [sp, #12]
    31f8:	4298      	cmp	r0, r3
    31fa:	d3c5      	bcc.n	3188 <__aeabi_ddiv+0x58c>
    31fc:	0011      	movs	r1, r2
    31fe:	e732      	b.n	3066 <__aeabi_ddiv+0x46a>
    3200:	2000      	movs	r0, #0
    3202:	e7d7      	b.n	31b4 <__aeabi_ddiv+0x5b8>
    3204:	2680      	movs	r6, #128	; 0x80
    3206:	465b      	mov	r3, fp
    3208:	0336      	lsls	r6, r6, #12
    320a:	431e      	orrs	r6, r3
    320c:	0336      	lsls	r6, r6, #12
    320e:	0b36      	lsrs	r6, r6, #12
    3210:	9a00      	ldr	r2, [sp, #0]
    3212:	4689      	mov	r9, r1
    3214:	4b03      	ldr	r3, [pc, #12]	; (3224 <__aeabi_ddiv+0x628>)
    3216:	e557      	b.n	2cc8 <__aeabi_ddiv+0xcc>
    3218:	000003ff 	.word	0x000003ff
    321c:	feffffff 	.word	0xfeffffff
    3220:	000007fe 	.word	0x000007fe
    3224:	000007ff 	.word	0x000007ff

00003228 <__aeabi_dmul>:
    3228:	b5f0      	push	{r4, r5, r6, r7, lr}
    322a:	465f      	mov	r7, fp
    322c:	4656      	mov	r6, sl
    322e:	464d      	mov	r5, r9
    3230:	4644      	mov	r4, r8
    3232:	b4f0      	push	{r4, r5, r6, r7}
    3234:	030d      	lsls	r5, r1, #12
    3236:	4699      	mov	r9, r3
    3238:	004e      	lsls	r6, r1, #1
    323a:	0b2b      	lsrs	r3, r5, #12
    323c:	b087      	sub	sp, #28
    323e:	0007      	movs	r7, r0
    3240:	4692      	mov	sl, r2
    3242:	4680      	mov	r8, r0
    3244:	469b      	mov	fp, r3
    3246:	0d76      	lsrs	r6, r6, #21
    3248:	0fcc      	lsrs	r4, r1, #31
    324a:	2e00      	cmp	r6, #0
    324c:	d069      	beq.n	3322 <__aeabi_dmul+0xfa>
    324e:	4b6d      	ldr	r3, [pc, #436]	; (3404 <__aeabi_dmul+0x1dc>)
    3250:	429e      	cmp	r6, r3
    3252:	d035      	beq.n	32c0 <__aeabi_dmul+0x98>
    3254:	465b      	mov	r3, fp
    3256:	2280      	movs	r2, #128	; 0x80
    3258:	00dd      	lsls	r5, r3, #3
    325a:	0412      	lsls	r2, r2, #16
    325c:	0f43      	lsrs	r3, r0, #29
    325e:	4313      	orrs	r3, r2
    3260:	432b      	orrs	r3, r5
    3262:	469b      	mov	fp, r3
    3264:	00c3      	lsls	r3, r0, #3
    3266:	4698      	mov	r8, r3
    3268:	4b67      	ldr	r3, [pc, #412]	; (3408 <__aeabi_dmul+0x1e0>)
    326a:	2700      	movs	r7, #0
    326c:	469c      	mov	ip, r3
    326e:	2300      	movs	r3, #0
    3270:	4466      	add	r6, ip
    3272:	9301      	str	r3, [sp, #4]
    3274:	464a      	mov	r2, r9
    3276:	0315      	lsls	r5, r2, #12
    3278:	0050      	lsls	r0, r2, #1
    327a:	0fd2      	lsrs	r2, r2, #31
    327c:	4653      	mov	r3, sl
    327e:	0b2d      	lsrs	r5, r5, #12
    3280:	0d40      	lsrs	r0, r0, #21
    3282:	4691      	mov	r9, r2
    3284:	d100      	bne.n	3288 <__aeabi_dmul+0x60>
    3286:	e076      	b.n	3376 <__aeabi_dmul+0x14e>
    3288:	4a5e      	ldr	r2, [pc, #376]	; (3404 <__aeabi_dmul+0x1dc>)
    328a:	4290      	cmp	r0, r2
    328c:	d06c      	beq.n	3368 <__aeabi_dmul+0x140>
    328e:	2280      	movs	r2, #128	; 0x80
    3290:	0f5b      	lsrs	r3, r3, #29
    3292:	0412      	lsls	r2, r2, #16
    3294:	4313      	orrs	r3, r2
    3296:	4a5c      	ldr	r2, [pc, #368]	; (3408 <__aeabi_dmul+0x1e0>)
    3298:	00ed      	lsls	r5, r5, #3
    329a:	4694      	mov	ip, r2
    329c:	431d      	orrs	r5, r3
    329e:	4653      	mov	r3, sl
    32a0:	2200      	movs	r2, #0
    32a2:	00db      	lsls	r3, r3, #3
    32a4:	4460      	add	r0, ip
    32a6:	4649      	mov	r1, r9
    32a8:	1836      	adds	r6, r6, r0
    32aa:	1c70      	adds	r0, r6, #1
    32ac:	4061      	eors	r1, r4
    32ae:	9002      	str	r0, [sp, #8]
    32b0:	4317      	orrs	r7, r2
    32b2:	2f0f      	cmp	r7, #15
    32b4:	d900      	bls.n	32b8 <__aeabi_dmul+0x90>
    32b6:	e0af      	b.n	3418 <__aeabi_dmul+0x1f0>
    32b8:	4854      	ldr	r0, [pc, #336]	; (340c <__aeabi_dmul+0x1e4>)
    32ba:	00bf      	lsls	r7, r7, #2
    32bc:	59c7      	ldr	r7, [r0, r7]
    32be:	46bf      	mov	pc, r7
    32c0:	465b      	mov	r3, fp
    32c2:	431f      	orrs	r7, r3
    32c4:	d000      	beq.n	32c8 <__aeabi_dmul+0xa0>
    32c6:	e088      	b.n	33da <__aeabi_dmul+0x1b2>
    32c8:	2300      	movs	r3, #0
    32ca:	469b      	mov	fp, r3
    32cc:	4698      	mov	r8, r3
    32ce:	3302      	adds	r3, #2
    32d0:	2708      	movs	r7, #8
    32d2:	9301      	str	r3, [sp, #4]
    32d4:	e7ce      	b.n	3274 <__aeabi_dmul+0x4c>
    32d6:	4649      	mov	r1, r9
    32d8:	2a02      	cmp	r2, #2
    32da:	d06a      	beq.n	33b2 <__aeabi_dmul+0x18a>
    32dc:	2a03      	cmp	r2, #3
    32de:	d100      	bne.n	32e2 <__aeabi_dmul+0xba>
    32e0:	e209      	b.n	36f6 <__aeabi_dmul+0x4ce>
    32e2:	2a01      	cmp	r2, #1
    32e4:	d000      	beq.n	32e8 <__aeabi_dmul+0xc0>
    32e6:	e1bb      	b.n	3660 <__aeabi_dmul+0x438>
    32e8:	4011      	ands	r1, r2
    32ea:	2200      	movs	r2, #0
    32ec:	2300      	movs	r3, #0
    32ee:	2500      	movs	r5, #0
    32f0:	4690      	mov	r8, r2
    32f2:	b2cc      	uxtb	r4, r1
    32f4:	2100      	movs	r1, #0
    32f6:	032d      	lsls	r5, r5, #12
    32f8:	0d0a      	lsrs	r2, r1, #20
    32fa:	0512      	lsls	r2, r2, #20
    32fc:	0b2d      	lsrs	r5, r5, #12
    32fe:	4315      	orrs	r5, r2
    3300:	4a43      	ldr	r2, [pc, #268]	; (3410 <__aeabi_dmul+0x1e8>)
    3302:	051b      	lsls	r3, r3, #20
    3304:	4015      	ands	r5, r2
    3306:	431d      	orrs	r5, r3
    3308:	006d      	lsls	r5, r5, #1
    330a:	07e4      	lsls	r4, r4, #31
    330c:	086d      	lsrs	r5, r5, #1
    330e:	4325      	orrs	r5, r4
    3310:	4640      	mov	r0, r8
    3312:	0029      	movs	r1, r5
    3314:	b007      	add	sp, #28
    3316:	bc3c      	pop	{r2, r3, r4, r5}
    3318:	4690      	mov	r8, r2
    331a:	4699      	mov	r9, r3
    331c:	46a2      	mov	sl, r4
    331e:	46ab      	mov	fp, r5
    3320:	bdf0      	pop	{r4, r5, r6, r7, pc}
    3322:	4303      	orrs	r3, r0
    3324:	d052      	beq.n	33cc <__aeabi_dmul+0x1a4>
    3326:	465b      	mov	r3, fp
    3328:	2b00      	cmp	r3, #0
    332a:	d100      	bne.n	332e <__aeabi_dmul+0x106>
    332c:	e18a      	b.n	3644 <__aeabi_dmul+0x41c>
    332e:	4658      	mov	r0, fp
    3330:	f000 fdb6 	bl	3ea0 <__clzsi2>
    3334:	0003      	movs	r3, r0
    3336:	3b0b      	subs	r3, #11
    3338:	2b1c      	cmp	r3, #28
    333a:	dd00      	ble.n	333e <__aeabi_dmul+0x116>
    333c:	e17b      	b.n	3636 <__aeabi_dmul+0x40e>
    333e:	221d      	movs	r2, #29
    3340:	1ad3      	subs	r3, r2, r3
    3342:	003a      	movs	r2, r7
    3344:	0001      	movs	r1, r0
    3346:	465d      	mov	r5, fp
    3348:	40da      	lsrs	r2, r3
    334a:	3908      	subs	r1, #8
    334c:	408d      	lsls	r5, r1
    334e:	0013      	movs	r3, r2
    3350:	408f      	lsls	r7, r1
    3352:	432b      	orrs	r3, r5
    3354:	469b      	mov	fp, r3
    3356:	46b8      	mov	r8, r7
    3358:	4b2e      	ldr	r3, [pc, #184]	; (3414 <__aeabi_dmul+0x1ec>)
    335a:	2700      	movs	r7, #0
    335c:	469c      	mov	ip, r3
    335e:	2300      	movs	r3, #0
    3360:	4460      	add	r0, ip
    3362:	4246      	negs	r6, r0
    3364:	9301      	str	r3, [sp, #4]
    3366:	e785      	b.n	3274 <__aeabi_dmul+0x4c>
    3368:	4652      	mov	r2, sl
    336a:	432a      	orrs	r2, r5
    336c:	d12c      	bne.n	33c8 <__aeabi_dmul+0x1a0>
    336e:	2500      	movs	r5, #0
    3370:	2300      	movs	r3, #0
    3372:	2202      	movs	r2, #2
    3374:	e797      	b.n	32a6 <__aeabi_dmul+0x7e>
    3376:	4652      	mov	r2, sl
    3378:	432a      	orrs	r2, r5
    337a:	d021      	beq.n	33c0 <__aeabi_dmul+0x198>
    337c:	2d00      	cmp	r5, #0
    337e:	d100      	bne.n	3382 <__aeabi_dmul+0x15a>
    3380:	e154      	b.n	362c <__aeabi_dmul+0x404>
    3382:	0028      	movs	r0, r5
    3384:	f000 fd8c 	bl	3ea0 <__clzsi2>
    3388:	0003      	movs	r3, r0
    338a:	3b0b      	subs	r3, #11
    338c:	2b1c      	cmp	r3, #28
    338e:	dd00      	ble.n	3392 <__aeabi_dmul+0x16a>
    3390:	e146      	b.n	3620 <__aeabi_dmul+0x3f8>
    3392:	211d      	movs	r1, #29
    3394:	1acb      	subs	r3, r1, r3
    3396:	4651      	mov	r1, sl
    3398:	0002      	movs	r2, r0
    339a:	40d9      	lsrs	r1, r3
    339c:	4653      	mov	r3, sl
    339e:	3a08      	subs	r2, #8
    33a0:	4095      	lsls	r5, r2
    33a2:	4093      	lsls	r3, r2
    33a4:	430d      	orrs	r5, r1
    33a6:	4a1b      	ldr	r2, [pc, #108]	; (3414 <__aeabi_dmul+0x1ec>)
    33a8:	4694      	mov	ip, r2
    33aa:	4460      	add	r0, ip
    33ac:	4240      	negs	r0, r0
    33ae:	2200      	movs	r2, #0
    33b0:	e779      	b.n	32a6 <__aeabi_dmul+0x7e>
    33b2:	2401      	movs	r4, #1
    33b4:	2200      	movs	r2, #0
    33b6:	400c      	ands	r4, r1
    33b8:	4b12      	ldr	r3, [pc, #72]	; (3404 <__aeabi_dmul+0x1dc>)
    33ba:	2500      	movs	r5, #0
    33bc:	4690      	mov	r8, r2
    33be:	e799      	b.n	32f4 <__aeabi_dmul+0xcc>
    33c0:	2500      	movs	r5, #0
    33c2:	2300      	movs	r3, #0
    33c4:	2201      	movs	r2, #1
    33c6:	e76e      	b.n	32a6 <__aeabi_dmul+0x7e>
    33c8:	2203      	movs	r2, #3
    33ca:	e76c      	b.n	32a6 <__aeabi_dmul+0x7e>
    33cc:	2300      	movs	r3, #0
    33ce:	469b      	mov	fp, r3
    33d0:	4698      	mov	r8, r3
    33d2:	3301      	adds	r3, #1
    33d4:	2704      	movs	r7, #4
    33d6:	9301      	str	r3, [sp, #4]
    33d8:	e74c      	b.n	3274 <__aeabi_dmul+0x4c>
    33da:	2303      	movs	r3, #3
    33dc:	270c      	movs	r7, #12
    33de:	9301      	str	r3, [sp, #4]
    33e0:	e748      	b.n	3274 <__aeabi_dmul+0x4c>
    33e2:	2300      	movs	r3, #0
    33e4:	2580      	movs	r5, #128	; 0x80
    33e6:	4698      	mov	r8, r3
    33e8:	2400      	movs	r4, #0
    33ea:	032d      	lsls	r5, r5, #12
    33ec:	4b05      	ldr	r3, [pc, #20]	; (3404 <__aeabi_dmul+0x1dc>)
    33ee:	e781      	b.n	32f4 <__aeabi_dmul+0xcc>
    33f0:	465d      	mov	r5, fp
    33f2:	4643      	mov	r3, r8
    33f4:	9a01      	ldr	r2, [sp, #4]
    33f6:	e76f      	b.n	32d8 <__aeabi_dmul+0xb0>
    33f8:	465d      	mov	r5, fp
    33fa:	4643      	mov	r3, r8
    33fc:	0021      	movs	r1, r4
    33fe:	9a01      	ldr	r2, [sp, #4]
    3400:	e76a      	b.n	32d8 <__aeabi_dmul+0xb0>
    3402:	46c0      	nop			; (mov r8, r8)
    3404:	000007ff 	.word	0x000007ff
    3408:	fffffc01 	.word	0xfffffc01
    340c:	000051b4 	.word	0x000051b4
    3410:	800fffff 	.word	0x800fffff
    3414:	000003f3 	.word	0x000003f3
    3418:	4642      	mov	r2, r8
    341a:	0c12      	lsrs	r2, r2, #16
    341c:	4691      	mov	r9, r2
    341e:	0c1a      	lsrs	r2, r3, #16
    3420:	4694      	mov	ip, r2
    3422:	4642      	mov	r2, r8
    3424:	0417      	lsls	r7, r2, #16
    3426:	464a      	mov	r2, r9
    3428:	041b      	lsls	r3, r3, #16
    342a:	0c1b      	lsrs	r3, r3, #16
    342c:	435a      	muls	r2, r3
    342e:	4660      	mov	r0, ip
    3430:	4690      	mov	r8, r2
    3432:	464a      	mov	r2, r9
    3434:	4342      	muls	r2, r0
    3436:	0010      	movs	r0, r2
    3438:	9203      	str	r2, [sp, #12]
    343a:	4662      	mov	r2, ip
    343c:	001c      	movs	r4, r3
    343e:	0c3f      	lsrs	r7, r7, #16
    3440:	437a      	muls	r2, r7
    3442:	437c      	muls	r4, r7
    3444:	4442      	add	r2, r8
    3446:	9201      	str	r2, [sp, #4]
    3448:	0c22      	lsrs	r2, r4, #16
    344a:	4692      	mov	sl, r2
    344c:	9a01      	ldr	r2, [sp, #4]
    344e:	4452      	add	r2, sl
    3450:	4590      	cmp	r8, r2
    3452:	d906      	bls.n	3462 <__aeabi_dmul+0x23a>
    3454:	4682      	mov	sl, r0
    3456:	2080      	movs	r0, #128	; 0x80
    3458:	0240      	lsls	r0, r0, #9
    345a:	4680      	mov	r8, r0
    345c:	44c2      	add	sl, r8
    345e:	4650      	mov	r0, sl
    3460:	9003      	str	r0, [sp, #12]
    3462:	0c10      	lsrs	r0, r2, #16
    3464:	9004      	str	r0, [sp, #16]
    3466:	4648      	mov	r0, r9
    3468:	0424      	lsls	r4, r4, #16
    346a:	0c24      	lsrs	r4, r4, #16
    346c:	0412      	lsls	r2, r2, #16
    346e:	1912      	adds	r2, r2, r4
    3470:	9205      	str	r2, [sp, #20]
    3472:	0c2a      	lsrs	r2, r5, #16
    3474:	042d      	lsls	r5, r5, #16
    3476:	0c2d      	lsrs	r5, r5, #16
    3478:	4368      	muls	r0, r5
    347a:	002c      	movs	r4, r5
    347c:	4682      	mov	sl, r0
    347e:	4648      	mov	r0, r9
    3480:	437c      	muls	r4, r7
    3482:	4350      	muls	r0, r2
    3484:	4681      	mov	r9, r0
    3486:	0c20      	lsrs	r0, r4, #16
    3488:	4680      	mov	r8, r0
    348a:	4357      	muls	r7, r2
    348c:	4457      	add	r7, sl
    348e:	4447      	add	r7, r8
    3490:	45ba      	cmp	sl, r7
    3492:	d903      	bls.n	349c <__aeabi_dmul+0x274>
    3494:	2080      	movs	r0, #128	; 0x80
    3496:	0240      	lsls	r0, r0, #9
    3498:	4680      	mov	r8, r0
    349a:	44c1      	add	r9, r8
    349c:	0c38      	lsrs	r0, r7, #16
    349e:	043f      	lsls	r7, r7, #16
    34a0:	46b8      	mov	r8, r7
    34a2:	4448      	add	r0, r9
    34a4:	0424      	lsls	r4, r4, #16
    34a6:	0c24      	lsrs	r4, r4, #16
    34a8:	9001      	str	r0, [sp, #4]
    34aa:	9804      	ldr	r0, [sp, #16]
    34ac:	44a0      	add	r8, r4
    34ae:	4440      	add	r0, r8
    34b0:	9004      	str	r0, [sp, #16]
    34b2:	4658      	mov	r0, fp
    34b4:	0c00      	lsrs	r0, r0, #16
    34b6:	4681      	mov	r9, r0
    34b8:	4658      	mov	r0, fp
    34ba:	0404      	lsls	r4, r0, #16
    34bc:	0c20      	lsrs	r0, r4, #16
    34be:	4682      	mov	sl, r0
    34c0:	0007      	movs	r7, r0
    34c2:	4648      	mov	r0, r9
    34c4:	435f      	muls	r7, r3
    34c6:	464c      	mov	r4, r9
    34c8:	4343      	muls	r3, r0
    34ca:	4660      	mov	r0, ip
    34cc:	4360      	muls	r0, r4
    34ce:	4664      	mov	r4, ip
    34d0:	4683      	mov	fp, r0
    34d2:	4650      	mov	r0, sl
    34d4:	4344      	muls	r4, r0
    34d6:	0c38      	lsrs	r0, r7, #16
    34d8:	4684      	mov	ip, r0
    34da:	18e4      	adds	r4, r4, r3
    34dc:	4464      	add	r4, ip
    34de:	42a3      	cmp	r3, r4
    34e0:	d903      	bls.n	34ea <__aeabi_dmul+0x2c2>
    34e2:	2380      	movs	r3, #128	; 0x80
    34e4:	025b      	lsls	r3, r3, #9
    34e6:	469c      	mov	ip, r3
    34e8:	44e3      	add	fp, ip
    34ea:	4648      	mov	r0, r9
    34ec:	043f      	lsls	r7, r7, #16
    34ee:	0c23      	lsrs	r3, r4, #16
    34f0:	0c3f      	lsrs	r7, r7, #16
    34f2:	0424      	lsls	r4, r4, #16
    34f4:	19e4      	adds	r4, r4, r7
    34f6:	4657      	mov	r7, sl
    34f8:	4368      	muls	r0, r5
    34fa:	436f      	muls	r7, r5
    34fc:	4684      	mov	ip, r0
    34fe:	464d      	mov	r5, r9
    3500:	4650      	mov	r0, sl
    3502:	4355      	muls	r5, r2
    3504:	4342      	muls	r2, r0
    3506:	0c38      	lsrs	r0, r7, #16
    3508:	4681      	mov	r9, r0
    350a:	4462      	add	r2, ip
    350c:	444a      	add	r2, r9
    350e:	445b      	add	r3, fp
    3510:	4594      	cmp	ip, r2
    3512:	d903      	bls.n	351c <__aeabi_dmul+0x2f4>
    3514:	2080      	movs	r0, #128	; 0x80
    3516:	0240      	lsls	r0, r0, #9
    3518:	4684      	mov	ip, r0
    351a:	4465      	add	r5, ip
    351c:	9803      	ldr	r0, [sp, #12]
    351e:	043f      	lsls	r7, r7, #16
    3520:	4683      	mov	fp, r0
    3522:	9804      	ldr	r0, [sp, #16]
    3524:	0c3f      	lsrs	r7, r7, #16
    3526:	4684      	mov	ip, r0
    3528:	44e3      	add	fp, ip
    352a:	45c3      	cmp	fp, r8
    352c:	4180      	sbcs	r0, r0
    352e:	4240      	negs	r0, r0
    3530:	4682      	mov	sl, r0
    3532:	0410      	lsls	r0, r2, #16
    3534:	4684      	mov	ip, r0
    3536:	9801      	ldr	r0, [sp, #4]
    3538:	4467      	add	r7, ip
    353a:	4684      	mov	ip, r0
    353c:	4467      	add	r7, ip
    353e:	44a3      	add	fp, r4
    3540:	46bc      	mov	ip, r7
    3542:	45a3      	cmp	fp, r4
    3544:	41a4      	sbcs	r4, r4
    3546:	4699      	mov	r9, r3
    3548:	44d4      	add	ip, sl
    354a:	4264      	negs	r4, r4
    354c:	4287      	cmp	r7, r0
    354e:	41bf      	sbcs	r7, r7
    3550:	45d4      	cmp	ip, sl
    3552:	4180      	sbcs	r0, r0
    3554:	44e1      	add	r9, ip
    3556:	46a0      	mov	r8, r4
    3558:	4599      	cmp	r9, r3
    355a:	419b      	sbcs	r3, r3
    355c:	427f      	negs	r7, r7
    355e:	4240      	negs	r0, r0
    3560:	44c8      	add	r8, r9
    3562:	4307      	orrs	r7, r0
    3564:	0c12      	lsrs	r2, r2, #16
    3566:	18ba      	adds	r2, r7, r2
    3568:	45a0      	cmp	r8, r4
    356a:	41a4      	sbcs	r4, r4
    356c:	425f      	negs	r7, r3
    356e:	003b      	movs	r3, r7
    3570:	4264      	negs	r4, r4
    3572:	4323      	orrs	r3, r4
    3574:	18d7      	adds	r7, r2, r3
    3576:	4643      	mov	r3, r8
    3578:	197d      	adds	r5, r7, r5
    357a:	0ddb      	lsrs	r3, r3, #23
    357c:	026d      	lsls	r5, r5, #9
    357e:	431d      	orrs	r5, r3
    3580:	465b      	mov	r3, fp
    3582:	025a      	lsls	r2, r3, #9
    3584:	9b05      	ldr	r3, [sp, #20]
    3586:	431a      	orrs	r2, r3
    3588:	1e53      	subs	r3, r2, #1
    358a:	419a      	sbcs	r2, r3
    358c:	465b      	mov	r3, fp
    358e:	0ddb      	lsrs	r3, r3, #23
    3590:	431a      	orrs	r2, r3
    3592:	4643      	mov	r3, r8
    3594:	025b      	lsls	r3, r3, #9
    3596:	4313      	orrs	r3, r2
    3598:	01ea      	lsls	r2, r5, #7
    359a:	d507      	bpl.n	35ac <__aeabi_dmul+0x384>
    359c:	2201      	movs	r2, #1
    359e:	085c      	lsrs	r4, r3, #1
    35a0:	4013      	ands	r3, r2
    35a2:	4323      	orrs	r3, r4
    35a4:	07ea      	lsls	r2, r5, #31
    35a6:	9e02      	ldr	r6, [sp, #8]
    35a8:	4313      	orrs	r3, r2
    35aa:	086d      	lsrs	r5, r5, #1
    35ac:	4a57      	ldr	r2, [pc, #348]	; (370c <__aeabi_dmul+0x4e4>)
    35ae:	18b2      	adds	r2, r6, r2
    35b0:	2a00      	cmp	r2, #0
    35b2:	dd4b      	ble.n	364c <__aeabi_dmul+0x424>
    35b4:	0758      	lsls	r0, r3, #29
    35b6:	d009      	beq.n	35cc <__aeabi_dmul+0x3a4>
    35b8:	200f      	movs	r0, #15
    35ba:	4018      	ands	r0, r3
    35bc:	2804      	cmp	r0, #4
    35be:	d005      	beq.n	35cc <__aeabi_dmul+0x3a4>
    35c0:	1d18      	adds	r0, r3, #4
    35c2:	4298      	cmp	r0, r3
    35c4:	419b      	sbcs	r3, r3
    35c6:	425b      	negs	r3, r3
    35c8:	18ed      	adds	r5, r5, r3
    35ca:	0003      	movs	r3, r0
    35cc:	01e8      	lsls	r0, r5, #7
    35ce:	d504      	bpl.n	35da <__aeabi_dmul+0x3b2>
    35d0:	4a4f      	ldr	r2, [pc, #316]	; (3710 <__aeabi_dmul+0x4e8>)
    35d2:	4015      	ands	r5, r2
    35d4:	2280      	movs	r2, #128	; 0x80
    35d6:	00d2      	lsls	r2, r2, #3
    35d8:	18b2      	adds	r2, r6, r2
    35da:	484e      	ldr	r0, [pc, #312]	; (3714 <__aeabi_dmul+0x4ec>)
    35dc:	4282      	cmp	r2, r0
    35de:	dd00      	ble.n	35e2 <__aeabi_dmul+0x3ba>
    35e0:	e6e7      	b.n	33b2 <__aeabi_dmul+0x18a>
    35e2:	2401      	movs	r4, #1
    35e4:	08db      	lsrs	r3, r3, #3
    35e6:	0768      	lsls	r0, r5, #29
    35e8:	4318      	orrs	r0, r3
    35ea:	026d      	lsls	r5, r5, #9
    35ec:	0553      	lsls	r3, r2, #21
    35ee:	4680      	mov	r8, r0
    35f0:	0b2d      	lsrs	r5, r5, #12
    35f2:	0d5b      	lsrs	r3, r3, #21
    35f4:	400c      	ands	r4, r1
    35f6:	e67d      	b.n	32f4 <__aeabi_dmul+0xcc>
    35f8:	2280      	movs	r2, #128	; 0x80
    35fa:	4659      	mov	r1, fp
    35fc:	0312      	lsls	r2, r2, #12
    35fe:	4211      	tst	r1, r2
    3600:	d008      	beq.n	3614 <__aeabi_dmul+0x3ec>
    3602:	4215      	tst	r5, r2
    3604:	d106      	bne.n	3614 <__aeabi_dmul+0x3ec>
    3606:	4315      	orrs	r5, r2
    3608:	032d      	lsls	r5, r5, #12
    360a:	4698      	mov	r8, r3
    360c:	0b2d      	lsrs	r5, r5, #12
    360e:	464c      	mov	r4, r9
    3610:	4b41      	ldr	r3, [pc, #260]	; (3718 <__aeabi_dmul+0x4f0>)
    3612:	e66f      	b.n	32f4 <__aeabi_dmul+0xcc>
    3614:	465d      	mov	r5, fp
    3616:	4315      	orrs	r5, r2
    3618:	032d      	lsls	r5, r5, #12
    361a:	0b2d      	lsrs	r5, r5, #12
    361c:	4b3e      	ldr	r3, [pc, #248]	; (3718 <__aeabi_dmul+0x4f0>)
    361e:	e669      	b.n	32f4 <__aeabi_dmul+0xcc>
    3620:	0003      	movs	r3, r0
    3622:	4655      	mov	r5, sl
    3624:	3b28      	subs	r3, #40	; 0x28
    3626:	409d      	lsls	r5, r3
    3628:	2300      	movs	r3, #0
    362a:	e6bc      	b.n	33a6 <__aeabi_dmul+0x17e>
    362c:	4650      	mov	r0, sl
    362e:	f000 fc37 	bl	3ea0 <__clzsi2>
    3632:	3020      	adds	r0, #32
    3634:	e6a8      	b.n	3388 <__aeabi_dmul+0x160>
    3636:	0003      	movs	r3, r0
    3638:	3b28      	subs	r3, #40	; 0x28
    363a:	409f      	lsls	r7, r3
    363c:	2300      	movs	r3, #0
    363e:	46bb      	mov	fp, r7
    3640:	4698      	mov	r8, r3
    3642:	e689      	b.n	3358 <__aeabi_dmul+0x130>
    3644:	f000 fc2c 	bl	3ea0 <__clzsi2>
    3648:	3020      	adds	r0, #32
    364a:	e673      	b.n	3334 <__aeabi_dmul+0x10c>
    364c:	2401      	movs	r4, #1
    364e:	1aa6      	subs	r6, r4, r2
    3650:	2e38      	cmp	r6, #56	; 0x38
    3652:	dd07      	ble.n	3664 <__aeabi_dmul+0x43c>
    3654:	2200      	movs	r2, #0
    3656:	400c      	ands	r4, r1
    3658:	2300      	movs	r3, #0
    365a:	2500      	movs	r5, #0
    365c:	4690      	mov	r8, r2
    365e:	e649      	b.n	32f4 <__aeabi_dmul+0xcc>
    3660:	9e02      	ldr	r6, [sp, #8]
    3662:	e7a3      	b.n	35ac <__aeabi_dmul+0x384>
    3664:	2e1f      	cmp	r6, #31
    3666:	dc20      	bgt.n	36aa <__aeabi_dmul+0x482>
    3668:	2220      	movs	r2, #32
    366a:	002c      	movs	r4, r5
    366c:	0018      	movs	r0, r3
    366e:	1b92      	subs	r2, r2, r6
    3670:	40f0      	lsrs	r0, r6
    3672:	4094      	lsls	r4, r2
    3674:	4093      	lsls	r3, r2
    3676:	4304      	orrs	r4, r0
    3678:	1e58      	subs	r0, r3, #1
    367a:	4183      	sbcs	r3, r0
    367c:	431c      	orrs	r4, r3
    367e:	40f5      	lsrs	r5, r6
    3680:	0763      	lsls	r3, r4, #29
    3682:	d009      	beq.n	3698 <__aeabi_dmul+0x470>
    3684:	230f      	movs	r3, #15
    3686:	4023      	ands	r3, r4
    3688:	2b04      	cmp	r3, #4
    368a:	d005      	beq.n	3698 <__aeabi_dmul+0x470>
    368c:	0023      	movs	r3, r4
    368e:	1d1c      	adds	r4, r3, #4
    3690:	429c      	cmp	r4, r3
    3692:	4192      	sbcs	r2, r2
    3694:	4252      	negs	r2, r2
    3696:	18ad      	adds	r5, r5, r2
    3698:	022b      	lsls	r3, r5, #8
    369a:	d51f      	bpl.n	36dc <__aeabi_dmul+0x4b4>
    369c:	2401      	movs	r4, #1
    369e:	2200      	movs	r2, #0
    36a0:	400c      	ands	r4, r1
    36a2:	2301      	movs	r3, #1
    36a4:	2500      	movs	r5, #0
    36a6:	4690      	mov	r8, r2
    36a8:	e624      	b.n	32f4 <__aeabi_dmul+0xcc>
    36aa:	201f      	movs	r0, #31
    36ac:	002c      	movs	r4, r5
    36ae:	4240      	negs	r0, r0
    36b0:	1a82      	subs	r2, r0, r2
    36b2:	40d4      	lsrs	r4, r2
    36b4:	2e20      	cmp	r6, #32
    36b6:	d01c      	beq.n	36f2 <__aeabi_dmul+0x4ca>
    36b8:	2240      	movs	r2, #64	; 0x40
    36ba:	1b96      	subs	r6, r2, r6
    36bc:	40b5      	lsls	r5, r6
    36be:	432b      	orrs	r3, r5
    36c0:	1e58      	subs	r0, r3, #1
    36c2:	4183      	sbcs	r3, r0
    36c4:	2007      	movs	r0, #7
    36c6:	4323      	orrs	r3, r4
    36c8:	4018      	ands	r0, r3
    36ca:	2500      	movs	r5, #0
    36cc:	2800      	cmp	r0, #0
    36ce:	d009      	beq.n	36e4 <__aeabi_dmul+0x4bc>
    36d0:	220f      	movs	r2, #15
    36d2:	2500      	movs	r5, #0
    36d4:	401a      	ands	r2, r3
    36d6:	001c      	movs	r4, r3
    36d8:	2a04      	cmp	r2, #4
    36da:	d1d8      	bne.n	368e <__aeabi_dmul+0x466>
    36dc:	0023      	movs	r3, r4
    36de:	0768      	lsls	r0, r5, #29
    36e0:	026d      	lsls	r5, r5, #9
    36e2:	0b2d      	lsrs	r5, r5, #12
    36e4:	2401      	movs	r4, #1
    36e6:	08db      	lsrs	r3, r3, #3
    36e8:	4303      	orrs	r3, r0
    36ea:	4698      	mov	r8, r3
    36ec:	400c      	ands	r4, r1
    36ee:	2300      	movs	r3, #0
    36f0:	e600      	b.n	32f4 <__aeabi_dmul+0xcc>
    36f2:	2500      	movs	r5, #0
    36f4:	e7e3      	b.n	36be <__aeabi_dmul+0x496>
    36f6:	2280      	movs	r2, #128	; 0x80
    36f8:	2401      	movs	r4, #1
    36fa:	0312      	lsls	r2, r2, #12
    36fc:	4315      	orrs	r5, r2
    36fe:	032d      	lsls	r5, r5, #12
    3700:	4698      	mov	r8, r3
    3702:	0b2d      	lsrs	r5, r5, #12
    3704:	400c      	ands	r4, r1
    3706:	4b04      	ldr	r3, [pc, #16]	; (3718 <__aeabi_dmul+0x4f0>)
    3708:	e5f4      	b.n	32f4 <__aeabi_dmul+0xcc>
    370a:	46c0      	nop			; (mov r8, r8)
    370c:	000003ff 	.word	0x000003ff
    3710:	feffffff 	.word	0xfeffffff
    3714:	000007fe 	.word	0x000007fe
    3718:	000007ff 	.word	0x000007ff

0000371c <__aeabi_dsub>:
    371c:	b5f0      	push	{r4, r5, r6, r7, lr}
    371e:	4657      	mov	r7, sl
    3720:	464e      	mov	r6, r9
    3722:	4645      	mov	r5, r8
    3724:	b4e0      	push	{r5, r6, r7}
    3726:	000e      	movs	r6, r1
    3728:	0011      	movs	r1, r2
    372a:	0ff2      	lsrs	r2, r6, #31
    372c:	4692      	mov	sl, r2
    372e:	00c5      	lsls	r5, r0, #3
    3730:	0f42      	lsrs	r2, r0, #29
    3732:	0318      	lsls	r0, r3, #12
    3734:	0337      	lsls	r7, r6, #12
    3736:	0074      	lsls	r4, r6, #1
    3738:	0a40      	lsrs	r0, r0, #9
    373a:	0f4e      	lsrs	r6, r1, #29
    373c:	0a7f      	lsrs	r7, r7, #9
    373e:	4330      	orrs	r0, r6
    3740:	4ecf      	ldr	r6, [pc, #828]	; (3a80 <__aeabi_dsub+0x364>)
    3742:	4317      	orrs	r7, r2
    3744:	005a      	lsls	r2, r3, #1
    3746:	0d64      	lsrs	r4, r4, #21
    3748:	0d52      	lsrs	r2, r2, #21
    374a:	0fdb      	lsrs	r3, r3, #31
    374c:	00c9      	lsls	r1, r1, #3
    374e:	42b2      	cmp	r2, r6
    3750:	d100      	bne.n	3754 <__aeabi_dsub+0x38>
    3752:	e0e5      	b.n	3920 <__aeabi_dsub+0x204>
    3754:	2601      	movs	r6, #1
    3756:	4073      	eors	r3, r6
    3758:	1aa6      	subs	r6, r4, r2
    375a:	46b4      	mov	ip, r6
    375c:	4553      	cmp	r3, sl
    375e:	d100      	bne.n	3762 <__aeabi_dsub+0x46>
    3760:	e0af      	b.n	38c2 <__aeabi_dsub+0x1a6>
    3762:	2e00      	cmp	r6, #0
    3764:	dc00      	bgt.n	3768 <__aeabi_dsub+0x4c>
    3766:	e10d      	b.n	3984 <__aeabi_dsub+0x268>
    3768:	2a00      	cmp	r2, #0
    376a:	d13a      	bne.n	37e2 <__aeabi_dsub+0xc6>
    376c:	0003      	movs	r3, r0
    376e:	430b      	orrs	r3, r1
    3770:	d000      	beq.n	3774 <__aeabi_dsub+0x58>
    3772:	e0e4      	b.n	393e <__aeabi_dsub+0x222>
    3774:	076b      	lsls	r3, r5, #29
    3776:	d009      	beq.n	378c <__aeabi_dsub+0x70>
    3778:	230f      	movs	r3, #15
    377a:	402b      	ands	r3, r5
    377c:	2b04      	cmp	r3, #4
    377e:	d005      	beq.n	378c <__aeabi_dsub+0x70>
    3780:	1d2b      	adds	r3, r5, #4
    3782:	42ab      	cmp	r3, r5
    3784:	41ad      	sbcs	r5, r5
    3786:	426d      	negs	r5, r5
    3788:	197f      	adds	r7, r7, r5
    378a:	001d      	movs	r5, r3
    378c:	023b      	lsls	r3, r7, #8
    378e:	d400      	bmi.n	3792 <__aeabi_dsub+0x76>
    3790:	e088      	b.n	38a4 <__aeabi_dsub+0x188>
    3792:	4bbb      	ldr	r3, [pc, #748]	; (3a80 <__aeabi_dsub+0x364>)
    3794:	3401      	adds	r4, #1
    3796:	429c      	cmp	r4, r3
    3798:	d100      	bne.n	379c <__aeabi_dsub+0x80>
    379a:	e110      	b.n	39be <__aeabi_dsub+0x2a2>
    379c:	003a      	movs	r2, r7
    379e:	4bb9      	ldr	r3, [pc, #740]	; (3a84 <__aeabi_dsub+0x368>)
    37a0:	4651      	mov	r1, sl
    37a2:	401a      	ands	r2, r3
    37a4:	2301      	movs	r3, #1
    37a6:	0750      	lsls	r0, r2, #29
    37a8:	08ed      	lsrs	r5, r5, #3
    37aa:	0252      	lsls	r2, r2, #9
    37ac:	0564      	lsls	r4, r4, #21
    37ae:	4305      	orrs	r5, r0
    37b0:	0b12      	lsrs	r2, r2, #12
    37b2:	0d64      	lsrs	r4, r4, #21
    37b4:	400b      	ands	r3, r1
    37b6:	2100      	movs	r1, #0
    37b8:	0028      	movs	r0, r5
    37ba:	0312      	lsls	r2, r2, #12
    37bc:	0d0d      	lsrs	r5, r1, #20
    37be:	0b12      	lsrs	r2, r2, #12
    37c0:	0564      	lsls	r4, r4, #21
    37c2:	052d      	lsls	r5, r5, #20
    37c4:	4315      	orrs	r5, r2
    37c6:	0862      	lsrs	r2, r4, #1
    37c8:	4caf      	ldr	r4, [pc, #700]	; (3a88 <__aeabi_dsub+0x36c>)
    37ca:	07db      	lsls	r3, r3, #31
    37cc:	402c      	ands	r4, r5
    37ce:	4314      	orrs	r4, r2
    37d0:	0064      	lsls	r4, r4, #1
    37d2:	0864      	lsrs	r4, r4, #1
    37d4:	431c      	orrs	r4, r3
    37d6:	0021      	movs	r1, r4
    37d8:	bc1c      	pop	{r2, r3, r4}
    37da:	4690      	mov	r8, r2
    37dc:	4699      	mov	r9, r3
    37de:	46a2      	mov	sl, r4
    37e0:	bdf0      	pop	{r4, r5, r6, r7, pc}
    37e2:	4ba7      	ldr	r3, [pc, #668]	; (3a80 <__aeabi_dsub+0x364>)
    37e4:	429c      	cmp	r4, r3
    37e6:	d0c5      	beq.n	3774 <__aeabi_dsub+0x58>
    37e8:	2380      	movs	r3, #128	; 0x80
    37ea:	041b      	lsls	r3, r3, #16
    37ec:	4318      	orrs	r0, r3
    37ee:	4663      	mov	r3, ip
    37f0:	2b38      	cmp	r3, #56	; 0x38
    37f2:	dd00      	ble.n	37f6 <__aeabi_dsub+0xda>
    37f4:	e0fd      	b.n	39f2 <__aeabi_dsub+0x2d6>
    37f6:	2b1f      	cmp	r3, #31
    37f8:	dd00      	ble.n	37fc <__aeabi_dsub+0xe0>
    37fa:	e130      	b.n	3a5e <__aeabi_dsub+0x342>
    37fc:	4662      	mov	r2, ip
    37fe:	2320      	movs	r3, #32
    3800:	1a9b      	subs	r3, r3, r2
    3802:	0002      	movs	r2, r0
    3804:	409a      	lsls	r2, r3
    3806:	4666      	mov	r6, ip
    3808:	4690      	mov	r8, r2
    380a:	000a      	movs	r2, r1
    380c:	4099      	lsls	r1, r3
    380e:	40f2      	lsrs	r2, r6
    3810:	4646      	mov	r6, r8
    3812:	1e4b      	subs	r3, r1, #1
    3814:	4199      	sbcs	r1, r3
    3816:	4332      	orrs	r2, r6
    3818:	4311      	orrs	r1, r2
    381a:	4663      	mov	r3, ip
    381c:	0002      	movs	r2, r0
    381e:	40da      	lsrs	r2, r3
    3820:	1a69      	subs	r1, r5, r1
    3822:	428d      	cmp	r5, r1
    3824:	419b      	sbcs	r3, r3
    3826:	000d      	movs	r5, r1
    3828:	1aba      	subs	r2, r7, r2
    382a:	425b      	negs	r3, r3
    382c:	1ad7      	subs	r7, r2, r3
    382e:	023b      	lsls	r3, r7, #8
    3830:	d535      	bpl.n	389e <__aeabi_dsub+0x182>
    3832:	027a      	lsls	r2, r7, #9
    3834:	0a53      	lsrs	r3, r2, #9
    3836:	4698      	mov	r8, r3
    3838:	4643      	mov	r3, r8
    383a:	2b00      	cmp	r3, #0
    383c:	d100      	bne.n	3840 <__aeabi_dsub+0x124>
    383e:	e0c4      	b.n	39ca <__aeabi_dsub+0x2ae>
    3840:	4640      	mov	r0, r8
    3842:	f000 fb2d 	bl	3ea0 <__clzsi2>
    3846:	0003      	movs	r3, r0
    3848:	3b08      	subs	r3, #8
    384a:	2b1f      	cmp	r3, #31
    384c:	dd00      	ble.n	3850 <__aeabi_dsub+0x134>
    384e:	e0c5      	b.n	39dc <__aeabi_dsub+0x2c0>
    3850:	2220      	movs	r2, #32
    3852:	0029      	movs	r1, r5
    3854:	1ad2      	subs	r2, r2, r3
    3856:	4647      	mov	r7, r8
    3858:	40d1      	lsrs	r1, r2
    385a:	409f      	lsls	r7, r3
    385c:	000a      	movs	r2, r1
    385e:	409d      	lsls	r5, r3
    3860:	433a      	orrs	r2, r7
    3862:	429c      	cmp	r4, r3
    3864:	dd00      	ble.n	3868 <__aeabi_dsub+0x14c>
    3866:	e0c0      	b.n	39ea <__aeabi_dsub+0x2ce>
    3868:	1b1c      	subs	r4, r3, r4
    386a:	1c63      	adds	r3, r4, #1
    386c:	2b1f      	cmp	r3, #31
    386e:	dd00      	ble.n	3872 <__aeabi_dsub+0x156>
    3870:	e0e4      	b.n	3a3c <__aeabi_dsub+0x320>
    3872:	2120      	movs	r1, #32
    3874:	0014      	movs	r4, r2
    3876:	0028      	movs	r0, r5
    3878:	1ac9      	subs	r1, r1, r3
    387a:	40d8      	lsrs	r0, r3
    387c:	408c      	lsls	r4, r1
    387e:	408d      	lsls	r5, r1
    3880:	4304      	orrs	r4, r0
    3882:	40da      	lsrs	r2, r3
    3884:	1e68      	subs	r0, r5, #1
    3886:	4185      	sbcs	r5, r0
    3888:	0017      	movs	r7, r2
    388a:	4325      	orrs	r5, r4
    388c:	2400      	movs	r4, #0
    388e:	e771      	b.n	3774 <__aeabi_dsub+0x58>
    3890:	4642      	mov	r2, r8
    3892:	4663      	mov	r3, ip
    3894:	431a      	orrs	r2, r3
    3896:	d100      	bne.n	389a <__aeabi_dsub+0x17e>
    3898:	e24c      	b.n	3d34 <__aeabi_dsub+0x618>
    389a:	4667      	mov	r7, ip
    389c:	4645      	mov	r5, r8
    389e:	076b      	lsls	r3, r5, #29
    38a0:	d000      	beq.n	38a4 <__aeabi_dsub+0x188>
    38a2:	e769      	b.n	3778 <__aeabi_dsub+0x5c>
    38a4:	2301      	movs	r3, #1
    38a6:	4651      	mov	r1, sl
    38a8:	0778      	lsls	r0, r7, #29
    38aa:	08ed      	lsrs	r5, r5, #3
    38ac:	08fa      	lsrs	r2, r7, #3
    38ae:	400b      	ands	r3, r1
    38b0:	4305      	orrs	r5, r0
    38b2:	4973      	ldr	r1, [pc, #460]	; (3a80 <__aeabi_dsub+0x364>)
    38b4:	428c      	cmp	r4, r1
    38b6:	d038      	beq.n	392a <__aeabi_dsub+0x20e>
    38b8:	0312      	lsls	r2, r2, #12
    38ba:	0564      	lsls	r4, r4, #21
    38bc:	0b12      	lsrs	r2, r2, #12
    38be:	0d64      	lsrs	r4, r4, #21
    38c0:	e779      	b.n	37b6 <__aeabi_dsub+0x9a>
    38c2:	2e00      	cmp	r6, #0
    38c4:	dc00      	bgt.n	38c8 <__aeabi_dsub+0x1ac>
    38c6:	e09a      	b.n	39fe <__aeabi_dsub+0x2e2>
    38c8:	2a00      	cmp	r2, #0
    38ca:	d047      	beq.n	395c <__aeabi_dsub+0x240>
    38cc:	4a6c      	ldr	r2, [pc, #432]	; (3a80 <__aeabi_dsub+0x364>)
    38ce:	4294      	cmp	r4, r2
    38d0:	d100      	bne.n	38d4 <__aeabi_dsub+0x1b8>
    38d2:	e74f      	b.n	3774 <__aeabi_dsub+0x58>
    38d4:	2280      	movs	r2, #128	; 0x80
    38d6:	0412      	lsls	r2, r2, #16
    38d8:	4310      	orrs	r0, r2
    38da:	4662      	mov	r2, ip
    38dc:	2a38      	cmp	r2, #56	; 0x38
    38de:	dc00      	bgt.n	38e2 <__aeabi_dsub+0x1c6>
    38e0:	e108      	b.n	3af4 <__aeabi_dsub+0x3d8>
    38e2:	4301      	orrs	r1, r0
    38e4:	1e48      	subs	r0, r1, #1
    38e6:	4181      	sbcs	r1, r0
    38e8:	2200      	movs	r2, #0
    38ea:	b2c9      	uxtb	r1, r1
    38ec:	1949      	adds	r1, r1, r5
    38ee:	19d2      	adds	r2, r2, r7
    38f0:	42a9      	cmp	r1, r5
    38f2:	41bf      	sbcs	r7, r7
    38f4:	000d      	movs	r5, r1
    38f6:	427f      	negs	r7, r7
    38f8:	18bf      	adds	r7, r7, r2
    38fa:	023a      	lsls	r2, r7, #8
    38fc:	d400      	bmi.n	3900 <__aeabi_dsub+0x1e4>
    38fe:	e142      	b.n	3b86 <__aeabi_dsub+0x46a>
    3900:	4a5f      	ldr	r2, [pc, #380]	; (3a80 <__aeabi_dsub+0x364>)
    3902:	3401      	adds	r4, #1
    3904:	4294      	cmp	r4, r2
    3906:	d100      	bne.n	390a <__aeabi_dsub+0x1ee>
    3908:	e14e      	b.n	3ba8 <__aeabi_dsub+0x48c>
    390a:	2001      	movs	r0, #1
    390c:	4a5d      	ldr	r2, [pc, #372]	; (3a84 <__aeabi_dsub+0x368>)
    390e:	0869      	lsrs	r1, r5, #1
    3910:	403a      	ands	r2, r7
    3912:	4028      	ands	r0, r5
    3914:	4308      	orrs	r0, r1
    3916:	07d5      	lsls	r5, r2, #31
    3918:	4305      	orrs	r5, r0
    391a:	0857      	lsrs	r7, r2, #1
    391c:	469a      	mov	sl, r3
    391e:	e729      	b.n	3774 <__aeabi_dsub+0x58>
    3920:	0006      	movs	r6, r0
    3922:	430e      	orrs	r6, r1
    3924:	d000      	beq.n	3928 <__aeabi_dsub+0x20c>
    3926:	e717      	b.n	3758 <__aeabi_dsub+0x3c>
    3928:	e714      	b.n	3754 <__aeabi_dsub+0x38>
    392a:	0029      	movs	r1, r5
    392c:	4311      	orrs	r1, r2
    392e:	d100      	bne.n	3932 <__aeabi_dsub+0x216>
    3930:	e1f9      	b.n	3d26 <__aeabi_dsub+0x60a>
    3932:	2180      	movs	r1, #128	; 0x80
    3934:	0309      	lsls	r1, r1, #12
    3936:	430a      	orrs	r2, r1
    3938:	0312      	lsls	r2, r2, #12
    393a:	0b12      	lsrs	r2, r2, #12
    393c:	e73b      	b.n	37b6 <__aeabi_dsub+0x9a>
    393e:	2301      	movs	r3, #1
    3940:	425b      	negs	r3, r3
    3942:	4698      	mov	r8, r3
    3944:	44c4      	add	ip, r8
    3946:	4663      	mov	r3, ip
    3948:	2b00      	cmp	r3, #0
    394a:	d172      	bne.n	3a32 <__aeabi_dsub+0x316>
    394c:	1a69      	subs	r1, r5, r1
    394e:	428d      	cmp	r5, r1
    3950:	419b      	sbcs	r3, r3
    3952:	1a3f      	subs	r7, r7, r0
    3954:	425b      	negs	r3, r3
    3956:	1aff      	subs	r7, r7, r3
    3958:	000d      	movs	r5, r1
    395a:	e768      	b.n	382e <__aeabi_dsub+0x112>
    395c:	0002      	movs	r2, r0
    395e:	430a      	orrs	r2, r1
    3960:	d100      	bne.n	3964 <__aeabi_dsub+0x248>
    3962:	e707      	b.n	3774 <__aeabi_dsub+0x58>
    3964:	2201      	movs	r2, #1
    3966:	4252      	negs	r2, r2
    3968:	4690      	mov	r8, r2
    396a:	44c4      	add	ip, r8
    396c:	4662      	mov	r2, ip
    396e:	2a00      	cmp	r2, #0
    3970:	d000      	beq.n	3974 <__aeabi_dsub+0x258>
    3972:	e0e6      	b.n	3b42 <__aeabi_dsub+0x426>
    3974:	1869      	adds	r1, r5, r1
    3976:	42a9      	cmp	r1, r5
    3978:	41b6      	sbcs	r6, r6
    397a:	183f      	adds	r7, r7, r0
    397c:	4276      	negs	r6, r6
    397e:	19f7      	adds	r7, r6, r7
    3980:	000d      	movs	r5, r1
    3982:	e7ba      	b.n	38fa <__aeabi_dsub+0x1de>
    3984:	2e00      	cmp	r6, #0
    3986:	d000      	beq.n	398a <__aeabi_dsub+0x26e>
    3988:	e080      	b.n	3a8c <__aeabi_dsub+0x370>
    398a:	1c62      	adds	r2, r4, #1
    398c:	0552      	lsls	r2, r2, #21
    398e:	0d52      	lsrs	r2, r2, #21
    3990:	2a01      	cmp	r2, #1
    3992:	dc00      	bgt.n	3996 <__aeabi_dsub+0x27a>
    3994:	e0f9      	b.n	3b8a <__aeabi_dsub+0x46e>
    3996:	1a6a      	subs	r2, r5, r1
    3998:	4691      	mov	r9, r2
    399a:	454d      	cmp	r5, r9
    399c:	41b6      	sbcs	r6, r6
    399e:	1a3a      	subs	r2, r7, r0
    39a0:	4276      	negs	r6, r6
    39a2:	1b92      	subs	r2, r2, r6
    39a4:	4690      	mov	r8, r2
    39a6:	0212      	lsls	r2, r2, #8
    39a8:	d400      	bmi.n	39ac <__aeabi_dsub+0x290>
    39aa:	e099      	b.n	3ae0 <__aeabi_dsub+0x3c4>
    39ac:	1b4d      	subs	r5, r1, r5
    39ae:	42a9      	cmp	r1, r5
    39b0:	4189      	sbcs	r1, r1
    39b2:	1bc7      	subs	r7, r0, r7
    39b4:	4249      	negs	r1, r1
    39b6:	1a7a      	subs	r2, r7, r1
    39b8:	4690      	mov	r8, r2
    39ba:	469a      	mov	sl, r3
    39bc:	e73c      	b.n	3838 <__aeabi_dsub+0x11c>
    39be:	4652      	mov	r2, sl
    39c0:	2301      	movs	r3, #1
    39c2:	2500      	movs	r5, #0
    39c4:	4013      	ands	r3, r2
    39c6:	2200      	movs	r2, #0
    39c8:	e6f5      	b.n	37b6 <__aeabi_dsub+0x9a>
    39ca:	0028      	movs	r0, r5
    39cc:	f000 fa68 	bl	3ea0 <__clzsi2>
    39d0:	3020      	adds	r0, #32
    39d2:	0003      	movs	r3, r0
    39d4:	3b08      	subs	r3, #8
    39d6:	2b1f      	cmp	r3, #31
    39d8:	dc00      	bgt.n	39dc <__aeabi_dsub+0x2c0>
    39da:	e739      	b.n	3850 <__aeabi_dsub+0x134>
    39dc:	002a      	movs	r2, r5
    39de:	3828      	subs	r0, #40	; 0x28
    39e0:	4082      	lsls	r2, r0
    39e2:	2500      	movs	r5, #0
    39e4:	429c      	cmp	r4, r3
    39e6:	dc00      	bgt.n	39ea <__aeabi_dsub+0x2ce>
    39e8:	e73e      	b.n	3868 <__aeabi_dsub+0x14c>
    39ea:	4f26      	ldr	r7, [pc, #152]	; (3a84 <__aeabi_dsub+0x368>)
    39ec:	1ae4      	subs	r4, r4, r3
    39ee:	4017      	ands	r7, r2
    39f0:	e6c0      	b.n	3774 <__aeabi_dsub+0x58>
    39f2:	4301      	orrs	r1, r0
    39f4:	1e48      	subs	r0, r1, #1
    39f6:	4181      	sbcs	r1, r0
    39f8:	2200      	movs	r2, #0
    39fa:	b2c9      	uxtb	r1, r1
    39fc:	e710      	b.n	3820 <__aeabi_dsub+0x104>
    39fe:	2e00      	cmp	r6, #0
    3a00:	d000      	beq.n	3a04 <__aeabi_dsub+0x2e8>
    3a02:	e0f1      	b.n	3be8 <__aeabi_dsub+0x4cc>
    3a04:	1c62      	adds	r2, r4, #1
    3a06:	4694      	mov	ip, r2
    3a08:	0552      	lsls	r2, r2, #21
    3a0a:	0d52      	lsrs	r2, r2, #21
    3a0c:	2a01      	cmp	r2, #1
    3a0e:	dc00      	bgt.n	3a12 <__aeabi_dsub+0x2f6>
    3a10:	e0a0      	b.n	3b54 <__aeabi_dsub+0x438>
    3a12:	4a1b      	ldr	r2, [pc, #108]	; (3a80 <__aeabi_dsub+0x364>)
    3a14:	4594      	cmp	ip, r2
    3a16:	d100      	bne.n	3a1a <__aeabi_dsub+0x2fe>
    3a18:	e0c5      	b.n	3ba6 <__aeabi_dsub+0x48a>
    3a1a:	1869      	adds	r1, r5, r1
    3a1c:	42a9      	cmp	r1, r5
    3a1e:	4192      	sbcs	r2, r2
    3a20:	183f      	adds	r7, r7, r0
    3a22:	4252      	negs	r2, r2
    3a24:	19d2      	adds	r2, r2, r7
    3a26:	0849      	lsrs	r1, r1, #1
    3a28:	07d5      	lsls	r5, r2, #31
    3a2a:	430d      	orrs	r5, r1
    3a2c:	0857      	lsrs	r7, r2, #1
    3a2e:	4664      	mov	r4, ip
    3a30:	e6a0      	b.n	3774 <__aeabi_dsub+0x58>
    3a32:	4b13      	ldr	r3, [pc, #76]	; (3a80 <__aeabi_dsub+0x364>)
    3a34:	429c      	cmp	r4, r3
    3a36:	d000      	beq.n	3a3a <__aeabi_dsub+0x31e>
    3a38:	e6d9      	b.n	37ee <__aeabi_dsub+0xd2>
    3a3a:	e69b      	b.n	3774 <__aeabi_dsub+0x58>
    3a3c:	0011      	movs	r1, r2
    3a3e:	3c1f      	subs	r4, #31
    3a40:	40e1      	lsrs	r1, r4
    3a42:	000c      	movs	r4, r1
    3a44:	2b20      	cmp	r3, #32
    3a46:	d100      	bne.n	3a4a <__aeabi_dsub+0x32e>
    3a48:	e080      	b.n	3b4c <__aeabi_dsub+0x430>
    3a4a:	2140      	movs	r1, #64	; 0x40
    3a4c:	1acb      	subs	r3, r1, r3
    3a4e:	409a      	lsls	r2, r3
    3a50:	4315      	orrs	r5, r2
    3a52:	1e6a      	subs	r2, r5, #1
    3a54:	4195      	sbcs	r5, r2
    3a56:	2700      	movs	r7, #0
    3a58:	4325      	orrs	r5, r4
    3a5a:	2400      	movs	r4, #0
    3a5c:	e71f      	b.n	389e <__aeabi_dsub+0x182>
    3a5e:	4663      	mov	r3, ip
    3a60:	0002      	movs	r2, r0
    3a62:	3b20      	subs	r3, #32
    3a64:	40da      	lsrs	r2, r3
    3a66:	4663      	mov	r3, ip
    3a68:	2b20      	cmp	r3, #32
    3a6a:	d071      	beq.n	3b50 <__aeabi_dsub+0x434>
    3a6c:	2340      	movs	r3, #64	; 0x40
    3a6e:	4666      	mov	r6, ip
    3a70:	1b9b      	subs	r3, r3, r6
    3a72:	4098      	lsls	r0, r3
    3a74:	4301      	orrs	r1, r0
    3a76:	1e48      	subs	r0, r1, #1
    3a78:	4181      	sbcs	r1, r0
    3a7a:	4311      	orrs	r1, r2
    3a7c:	2200      	movs	r2, #0
    3a7e:	e6cf      	b.n	3820 <__aeabi_dsub+0x104>
    3a80:	000007ff 	.word	0x000007ff
    3a84:	ff7fffff 	.word	0xff7fffff
    3a88:	800fffff 	.word	0x800fffff
    3a8c:	2c00      	cmp	r4, #0
    3a8e:	d048      	beq.n	3b22 <__aeabi_dsub+0x406>
    3a90:	4cca      	ldr	r4, [pc, #808]	; (3dbc <__aeabi_dsub+0x6a0>)
    3a92:	42a2      	cmp	r2, r4
    3a94:	d100      	bne.n	3a98 <__aeabi_dsub+0x37c>
    3a96:	e0a2      	b.n	3bde <__aeabi_dsub+0x4c2>
    3a98:	4274      	negs	r4, r6
    3a9a:	46a1      	mov	r9, r4
    3a9c:	2480      	movs	r4, #128	; 0x80
    3a9e:	0424      	lsls	r4, r4, #16
    3aa0:	4327      	orrs	r7, r4
    3aa2:	464c      	mov	r4, r9
    3aa4:	2c38      	cmp	r4, #56	; 0x38
    3aa6:	dd00      	ble.n	3aaa <__aeabi_dsub+0x38e>
    3aa8:	e0db      	b.n	3c62 <__aeabi_dsub+0x546>
    3aaa:	2c1f      	cmp	r4, #31
    3aac:	dd00      	ble.n	3ab0 <__aeabi_dsub+0x394>
    3aae:	e144      	b.n	3d3a <__aeabi_dsub+0x61e>
    3ab0:	464e      	mov	r6, r9
    3ab2:	2420      	movs	r4, #32
    3ab4:	1ba4      	subs	r4, r4, r6
    3ab6:	003e      	movs	r6, r7
    3ab8:	40a6      	lsls	r6, r4
    3aba:	46a2      	mov	sl, r4
    3abc:	46b0      	mov	r8, r6
    3abe:	464c      	mov	r4, r9
    3ac0:	002e      	movs	r6, r5
    3ac2:	40e6      	lsrs	r6, r4
    3ac4:	46b4      	mov	ip, r6
    3ac6:	4646      	mov	r6, r8
    3ac8:	4664      	mov	r4, ip
    3aca:	4326      	orrs	r6, r4
    3acc:	4654      	mov	r4, sl
    3ace:	40a5      	lsls	r5, r4
    3ad0:	1e6c      	subs	r4, r5, #1
    3ad2:	41a5      	sbcs	r5, r4
    3ad4:	0034      	movs	r4, r6
    3ad6:	432c      	orrs	r4, r5
    3ad8:	464d      	mov	r5, r9
    3ada:	40ef      	lsrs	r7, r5
    3adc:	1b0d      	subs	r5, r1, r4
    3ade:	e028      	b.n	3b32 <__aeabi_dsub+0x416>
    3ae0:	464a      	mov	r2, r9
    3ae2:	4643      	mov	r3, r8
    3ae4:	464d      	mov	r5, r9
    3ae6:	431a      	orrs	r2, r3
    3ae8:	d000      	beq.n	3aec <__aeabi_dsub+0x3d0>
    3aea:	e6a5      	b.n	3838 <__aeabi_dsub+0x11c>
    3aec:	2300      	movs	r3, #0
    3aee:	2400      	movs	r4, #0
    3af0:	2500      	movs	r5, #0
    3af2:	e6de      	b.n	38b2 <__aeabi_dsub+0x196>
    3af4:	2a1f      	cmp	r2, #31
    3af6:	dc5a      	bgt.n	3bae <__aeabi_dsub+0x492>
    3af8:	4666      	mov	r6, ip
    3afa:	2220      	movs	r2, #32
    3afc:	1b92      	subs	r2, r2, r6
    3afe:	0006      	movs	r6, r0
    3b00:	4096      	lsls	r6, r2
    3b02:	4691      	mov	r9, r2
    3b04:	46b0      	mov	r8, r6
    3b06:	4662      	mov	r2, ip
    3b08:	000e      	movs	r6, r1
    3b0a:	40d6      	lsrs	r6, r2
    3b0c:	4642      	mov	r2, r8
    3b0e:	4316      	orrs	r6, r2
    3b10:	464a      	mov	r2, r9
    3b12:	4091      	lsls	r1, r2
    3b14:	1e4a      	subs	r2, r1, #1
    3b16:	4191      	sbcs	r1, r2
    3b18:	0002      	movs	r2, r0
    3b1a:	4660      	mov	r0, ip
    3b1c:	4331      	orrs	r1, r6
    3b1e:	40c2      	lsrs	r2, r0
    3b20:	e6e4      	b.n	38ec <__aeabi_dsub+0x1d0>
    3b22:	003c      	movs	r4, r7
    3b24:	432c      	orrs	r4, r5
    3b26:	d05a      	beq.n	3bde <__aeabi_dsub+0x4c2>
    3b28:	43f4      	mvns	r4, r6
    3b2a:	46a1      	mov	r9, r4
    3b2c:	2c00      	cmp	r4, #0
    3b2e:	d152      	bne.n	3bd6 <__aeabi_dsub+0x4ba>
    3b30:	1b4d      	subs	r5, r1, r5
    3b32:	42a9      	cmp	r1, r5
    3b34:	4189      	sbcs	r1, r1
    3b36:	1bc7      	subs	r7, r0, r7
    3b38:	4249      	negs	r1, r1
    3b3a:	1a7f      	subs	r7, r7, r1
    3b3c:	0014      	movs	r4, r2
    3b3e:	469a      	mov	sl, r3
    3b40:	e675      	b.n	382e <__aeabi_dsub+0x112>
    3b42:	4a9e      	ldr	r2, [pc, #632]	; (3dbc <__aeabi_dsub+0x6a0>)
    3b44:	4294      	cmp	r4, r2
    3b46:	d000      	beq.n	3b4a <__aeabi_dsub+0x42e>
    3b48:	e6c7      	b.n	38da <__aeabi_dsub+0x1be>
    3b4a:	e613      	b.n	3774 <__aeabi_dsub+0x58>
    3b4c:	2200      	movs	r2, #0
    3b4e:	e77f      	b.n	3a50 <__aeabi_dsub+0x334>
    3b50:	2000      	movs	r0, #0
    3b52:	e78f      	b.n	3a74 <__aeabi_dsub+0x358>
    3b54:	2c00      	cmp	r4, #0
    3b56:	d000      	beq.n	3b5a <__aeabi_dsub+0x43e>
    3b58:	e0c8      	b.n	3cec <__aeabi_dsub+0x5d0>
    3b5a:	003b      	movs	r3, r7
    3b5c:	432b      	orrs	r3, r5
    3b5e:	d100      	bne.n	3b62 <__aeabi_dsub+0x446>
    3b60:	e10f      	b.n	3d82 <__aeabi_dsub+0x666>
    3b62:	0003      	movs	r3, r0
    3b64:	430b      	orrs	r3, r1
    3b66:	d100      	bne.n	3b6a <__aeabi_dsub+0x44e>
    3b68:	e604      	b.n	3774 <__aeabi_dsub+0x58>
    3b6a:	1869      	adds	r1, r5, r1
    3b6c:	42a9      	cmp	r1, r5
    3b6e:	419b      	sbcs	r3, r3
    3b70:	183f      	adds	r7, r7, r0
    3b72:	425b      	negs	r3, r3
    3b74:	19df      	adds	r7, r3, r7
    3b76:	023b      	lsls	r3, r7, #8
    3b78:	d400      	bmi.n	3b7c <__aeabi_dsub+0x460>
    3b7a:	e11a      	b.n	3db2 <__aeabi_dsub+0x696>
    3b7c:	4b90      	ldr	r3, [pc, #576]	; (3dc0 <__aeabi_dsub+0x6a4>)
    3b7e:	000d      	movs	r5, r1
    3b80:	401f      	ands	r7, r3
    3b82:	4664      	mov	r4, ip
    3b84:	e5f6      	b.n	3774 <__aeabi_dsub+0x58>
    3b86:	469a      	mov	sl, r3
    3b88:	e689      	b.n	389e <__aeabi_dsub+0x182>
    3b8a:	003a      	movs	r2, r7
    3b8c:	432a      	orrs	r2, r5
    3b8e:	2c00      	cmp	r4, #0
    3b90:	d15c      	bne.n	3c4c <__aeabi_dsub+0x530>
    3b92:	2a00      	cmp	r2, #0
    3b94:	d175      	bne.n	3c82 <__aeabi_dsub+0x566>
    3b96:	0002      	movs	r2, r0
    3b98:	430a      	orrs	r2, r1
    3b9a:	d100      	bne.n	3b9e <__aeabi_dsub+0x482>
    3b9c:	e0ca      	b.n	3d34 <__aeabi_dsub+0x618>
    3b9e:	0007      	movs	r7, r0
    3ba0:	000d      	movs	r5, r1
    3ba2:	469a      	mov	sl, r3
    3ba4:	e5e6      	b.n	3774 <__aeabi_dsub+0x58>
    3ba6:	4664      	mov	r4, ip
    3ba8:	2200      	movs	r2, #0
    3baa:	2500      	movs	r5, #0
    3bac:	e681      	b.n	38b2 <__aeabi_dsub+0x196>
    3bae:	4662      	mov	r2, ip
    3bb0:	0006      	movs	r6, r0
    3bb2:	3a20      	subs	r2, #32
    3bb4:	40d6      	lsrs	r6, r2
    3bb6:	4662      	mov	r2, ip
    3bb8:	46b0      	mov	r8, r6
    3bba:	2a20      	cmp	r2, #32
    3bbc:	d100      	bne.n	3bc0 <__aeabi_dsub+0x4a4>
    3bbe:	e0b7      	b.n	3d30 <__aeabi_dsub+0x614>
    3bc0:	2240      	movs	r2, #64	; 0x40
    3bc2:	4666      	mov	r6, ip
    3bc4:	1b92      	subs	r2, r2, r6
    3bc6:	4090      	lsls	r0, r2
    3bc8:	4301      	orrs	r1, r0
    3bca:	4642      	mov	r2, r8
    3bcc:	1e48      	subs	r0, r1, #1
    3bce:	4181      	sbcs	r1, r0
    3bd0:	4311      	orrs	r1, r2
    3bd2:	2200      	movs	r2, #0
    3bd4:	e68a      	b.n	38ec <__aeabi_dsub+0x1d0>
    3bd6:	4c79      	ldr	r4, [pc, #484]	; (3dbc <__aeabi_dsub+0x6a0>)
    3bd8:	42a2      	cmp	r2, r4
    3bda:	d000      	beq.n	3bde <__aeabi_dsub+0x4c2>
    3bdc:	e761      	b.n	3aa2 <__aeabi_dsub+0x386>
    3bde:	0007      	movs	r7, r0
    3be0:	000d      	movs	r5, r1
    3be2:	0014      	movs	r4, r2
    3be4:	469a      	mov	sl, r3
    3be6:	e5c5      	b.n	3774 <__aeabi_dsub+0x58>
    3be8:	2c00      	cmp	r4, #0
    3bea:	d141      	bne.n	3c70 <__aeabi_dsub+0x554>
    3bec:	003c      	movs	r4, r7
    3bee:	432c      	orrs	r4, r5
    3bf0:	d078      	beq.n	3ce4 <__aeabi_dsub+0x5c8>
    3bf2:	43f4      	mvns	r4, r6
    3bf4:	46a1      	mov	r9, r4
    3bf6:	2c00      	cmp	r4, #0
    3bf8:	d020      	beq.n	3c3c <__aeabi_dsub+0x520>
    3bfa:	4c70      	ldr	r4, [pc, #448]	; (3dbc <__aeabi_dsub+0x6a0>)
    3bfc:	42a2      	cmp	r2, r4
    3bfe:	d071      	beq.n	3ce4 <__aeabi_dsub+0x5c8>
    3c00:	464c      	mov	r4, r9
    3c02:	2c38      	cmp	r4, #56	; 0x38
    3c04:	dd00      	ble.n	3c08 <__aeabi_dsub+0x4ec>
    3c06:	e0b2      	b.n	3d6e <__aeabi_dsub+0x652>
    3c08:	2c1f      	cmp	r4, #31
    3c0a:	dd00      	ble.n	3c0e <__aeabi_dsub+0x4f2>
    3c0c:	e0bc      	b.n	3d88 <__aeabi_dsub+0x66c>
    3c0e:	2620      	movs	r6, #32
    3c10:	1b34      	subs	r4, r6, r4
    3c12:	46a2      	mov	sl, r4
    3c14:	003c      	movs	r4, r7
    3c16:	4656      	mov	r6, sl
    3c18:	40b4      	lsls	r4, r6
    3c1a:	464e      	mov	r6, r9
    3c1c:	46a0      	mov	r8, r4
    3c1e:	002c      	movs	r4, r5
    3c20:	40f4      	lsrs	r4, r6
    3c22:	46a4      	mov	ip, r4
    3c24:	4644      	mov	r4, r8
    3c26:	4666      	mov	r6, ip
    3c28:	4334      	orrs	r4, r6
    3c2a:	46a4      	mov	ip, r4
    3c2c:	4654      	mov	r4, sl
    3c2e:	40a5      	lsls	r5, r4
    3c30:	4664      	mov	r4, ip
    3c32:	1e6e      	subs	r6, r5, #1
    3c34:	41b5      	sbcs	r5, r6
    3c36:	4325      	orrs	r5, r4
    3c38:	464c      	mov	r4, r9
    3c3a:	40e7      	lsrs	r7, r4
    3c3c:	186d      	adds	r5, r5, r1
    3c3e:	428d      	cmp	r5, r1
    3c40:	4189      	sbcs	r1, r1
    3c42:	183f      	adds	r7, r7, r0
    3c44:	4249      	negs	r1, r1
    3c46:	19cf      	adds	r7, r1, r7
    3c48:	0014      	movs	r4, r2
    3c4a:	e656      	b.n	38fa <__aeabi_dsub+0x1de>
    3c4c:	2a00      	cmp	r2, #0
    3c4e:	d12f      	bne.n	3cb0 <__aeabi_dsub+0x594>
    3c50:	0002      	movs	r2, r0
    3c52:	430a      	orrs	r2, r1
    3c54:	d100      	bne.n	3c58 <__aeabi_dsub+0x53c>
    3c56:	e084      	b.n	3d62 <__aeabi_dsub+0x646>
    3c58:	0007      	movs	r7, r0
    3c5a:	000d      	movs	r5, r1
    3c5c:	469a      	mov	sl, r3
    3c5e:	4c57      	ldr	r4, [pc, #348]	; (3dbc <__aeabi_dsub+0x6a0>)
    3c60:	e588      	b.n	3774 <__aeabi_dsub+0x58>
    3c62:	433d      	orrs	r5, r7
    3c64:	1e6f      	subs	r7, r5, #1
    3c66:	41bd      	sbcs	r5, r7
    3c68:	b2ec      	uxtb	r4, r5
    3c6a:	2700      	movs	r7, #0
    3c6c:	1b0d      	subs	r5, r1, r4
    3c6e:	e760      	b.n	3b32 <__aeabi_dsub+0x416>
    3c70:	4c52      	ldr	r4, [pc, #328]	; (3dbc <__aeabi_dsub+0x6a0>)
    3c72:	42a2      	cmp	r2, r4
    3c74:	d036      	beq.n	3ce4 <__aeabi_dsub+0x5c8>
    3c76:	4274      	negs	r4, r6
    3c78:	2680      	movs	r6, #128	; 0x80
    3c7a:	0436      	lsls	r6, r6, #16
    3c7c:	46a1      	mov	r9, r4
    3c7e:	4337      	orrs	r7, r6
    3c80:	e7be      	b.n	3c00 <__aeabi_dsub+0x4e4>
    3c82:	0002      	movs	r2, r0
    3c84:	430a      	orrs	r2, r1
    3c86:	d100      	bne.n	3c8a <__aeabi_dsub+0x56e>
    3c88:	e574      	b.n	3774 <__aeabi_dsub+0x58>
    3c8a:	1a6a      	subs	r2, r5, r1
    3c8c:	4690      	mov	r8, r2
    3c8e:	4545      	cmp	r5, r8
    3c90:	41b6      	sbcs	r6, r6
    3c92:	1a3a      	subs	r2, r7, r0
    3c94:	4276      	negs	r6, r6
    3c96:	1b92      	subs	r2, r2, r6
    3c98:	4694      	mov	ip, r2
    3c9a:	0212      	lsls	r2, r2, #8
    3c9c:	d400      	bmi.n	3ca0 <__aeabi_dsub+0x584>
    3c9e:	e5f7      	b.n	3890 <__aeabi_dsub+0x174>
    3ca0:	1b4d      	subs	r5, r1, r5
    3ca2:	42a9      	cmp	r1, r5
    3ca4:	4189      	sbcs	r1, r1
    3ca6:	1bc7      	subs	r7, r0, r7
    3ca8:	4249      	negs	r1, r1
    3caa:	1a7f      	subs	r7, r7, r1
    3cac:	469a      	mov	sl, r3
    3cae:	e561      	b.n	3774 <__aeabi_dsub+0x58>
    3cb0:	0002      	movs	r2, r0
    3cb2:	430a      	orrs	r2, r1
    3cb4:	d03a      	beq.n	3d2c <__aeabi_dsub+0x610>
    3cb6:	08ed      	lsrs	r5, r5, #3
    3cb8:	077c      	lsls	r4, r7, #29
    3cba:	432c      	orrs	r4, r5
    3cbc:	2580      	movs	r5, #128	; 0x80
    3cbe:	08fa      	lsrs	r2, r7, #3
    3cc0:	032d      	lsls	r5, r5, #12
    3cc2:	422a      	tst	r2, r5
    3cc4:	d008      	beq.n	3cd8 <__aeabi_dsub+0x5bc>
    3cc6:	08c7      	lsrs	r7, r0, #3
    3cc8:	422f      	tst	r7, r5
    3cca:	d105      	bne.n	3cd8 <__aeabi_dsub+0x5bc>
    3ccc:	0745      	lsls	r5, r0, #29
    3cce:	002c      	movs	r4, r5
    3cd0:	003a      	movs	r2, r7
    3cd2:	469a      	mov	sl, r3
    3cd4:	08c9      	lsrs	r1, r1, #3
    3cd6:	430c      	orrs	r4, r1
    3cd8:	0f67      	lsrs	r7, r4, #29
    3cda:	00d2      	lsls	r2, r2, #3
    3cdc:	00e5      	lsls	r5, r4, #3
    3cde:	4317      	orrs	r7, r2
    3ce0:	4c36      	ldr	r4, [pc, #216]	; (3dbc <__aeabi_dsub+0x6a0>)
    3ce2:	e547      	b.n	3774 <__aeabi_dsub+0x58>
    3ce4:	0007      	movs	r7, r0
    3ce6:	000d      	movs	r5, r1
    3ce8:	0014      	movs	r4, r2
    3cea:	e543      	b.n	3774 <__aeabi_dsub+0x58>
    3cec:	003a      	movs	r2, r7
    3cee:	432a      	orrs	r2, r5
    3cf0:	d043      	beq.n	3d7a <__aeabi_dsub+0x65e>
    3cf2:	0002      	movs	r2, r0
    3cf4:	430a      	orrs	r2, r1
    3cf6:	d019      	beq.n	3d2c <__aeabi_dsub+0x610>
    3cf8:	08ed      	lsrs	r5, r5, #3
    3cfa:	077c      	lsls	r4, r7, #29
    3cfc:	432c      	orrs	r4, r5
    3cfe:	2580      	movs	r5, #128	; 0x80
    3d00:	08fa      	lsrs	r2, r7, #3
    3d02:	032d      	lsls	r5, r5, #12
    3d04:	422a      	tst	r2, r5
    3d06:	d007      	beq.n	3d18 <__aeabi_dsub+0x5fc>
    3d08:	08c6      	lsrs	r6, r0, #3
    3d0a:	422e      	tst	r6, r5
    3d0c:	d104      	bne.n	3d18 <__aeabi_dsub+0x5fc>
    3d0e:	0747      	lsls	r7, r0, #29
    3d10:	003c      	movs	r4, r7
    3d12:	0032      	movs	r2, r6
    3d14:	08c9      	lsrs	r1, r1, #3
    3d16:	430c      	orrs	r4, r1
    3d18:	00d7      	lsls	r7, r2, #3
    3d1a:	0f62      	lsrs	r2, r4, #29
    3d1c:	00e5      	lsls	r5, r4, #3
    3d1e:	4317      	orrs	r7, r2
    3d20:	469a      	mov	sl, r3
    3d22:	4c26      	ldr	r4, [pc, #152]	; (3dbc <__aeabi_dsub+0x6a0>)
    3d24:	e526      	b.n	3774 <__aeabi_dsub+0x58>
    3d26:	2200      	movs	r2, #0
    3d28:	2500      	movs	r5, #0
    3d2a:	e544      	b.n	37b6 <__aeabi_dsub+0x9a>
    3d2c:	4c23      	ldr	r4, [pc, #140]	; (3dbc <__aeabi_dsub+0x6a0>)
    3d2e:	e521      	b.n	3774 <__aeabi_dsub+0x58>
    3d30:	2000      	movs	r0, #0
    3d32:	e749      	b.n	3bc8 <__aeabi_dsub+0x4ac>
    3d34:	2300      	movs	r3, #0
    3d36:	2500      	movs	r5, #0
    3d38:	e5bb      	b.n	38b2 <__aeabi_dsub+0x196>
    3d3a:	464c      	mov	r4, r9
    3d3c:	003e      	movs	r6, r7
    3d3e:	3c20      	subs	r4, #32
    3d40:	40e6      	lsrs	r6, r4
    3d42:	464c      	mov	r4, r9
    3d44:	46b4      	mov	ip, r6
    3d46:	2c20      	cmp	r4, #32
    3d48:	d031      	beq.n	3dae <__aeabi_dsub+0x692>
    3d4a:	2440      	movs	r4, #64	; 0x40
    3d4c:	464e      	mov	r6, r9
    3d4e:	1ba6      	subs	r6, r4, r6
    3d50:	40b7      	lsls	r7, r6
    3d52:	433d      	orrs	r5, r7
    3d54:	1e6c      	subs	r4, r5, #1
    3d56:	41a5      	sbcs	r5, r4
    3d58:	4664      	mov	r4, ip
    3d5a:	432c      	orrs	r4, r5
    3d5c:	2700      	movs	r7, #0
    3d5e:	1b0d      	subs	r5, r1, r4
    3d60:	e6e7      	b.n	3b32 <__aeabi_dsub+0x416>
    3d62:	2280      	movs	r2, #128	; 0x80
    3d64:	2300      	movs	r3, #0
    3d66:	0312      	lsls	r2, r2, #12
    3d68:	4c14      	ldr	r4, [pc, #80]	; (3dbc <__aeabi_dsub+0x6a0>)
    3d6a:	2500      	movs	r5, #0
    3d6c:	e5a1      	b.n	38b2 <__aeabi_dsub+0x196>
    3d6e:	433d      	orrs	r5, r7
    3d70:	1e6f      	subs	r7, r5, #1
    3d72:	41bd      	sbcs	r5, r7
    3d74:	2700      	movs	r7, #0
    3d76:	b2ed      	uxtb	r5, r5
    3d78:	e760      	b.n	3c3c <__aeabi_dsub+0x520>
    3d7a:	0007      	movs	r7, r0
    3d7c:	000d      	movs	r5, r1
    3d7e:	4c0f      	ldr	r4, [pc, #60]	; (3dbc <__aeabi_dsub+0x6a0>)
    3d80:	e4f8      	b.n	3774 <__aeabi_dsub+0x58>
    3d82:	0007      	movs	r7, r0
    3d84:	000d      	movs	r5, r1
    3d86:	e4f5      	b.n	3774 <__aeabi_dsub+0x58>
    3d88:	464e      	mov	r6, r9
    3d8a:	003c      	movs	r4, r7
    3d8c:	3e20      	subs	r6, #32
    3d8e:	40f4      	lsrs	r4, r6
    3d90:	46a0      	mov	r8, r4
    3d92:	464c      	mov	r4, r9
    3d94:	2c20      	cmp	r4, #32
    3d96:	d00e      	beq.n	3db6 <__aeabi_dsub+0x69a>
    3d98:	2440      	movs	r4, #64	; 0x40
    3d9a:	464e      	mov	r6, r9
    3d9c:	1ba4      	subs	r4, r4, r6
    3d9e:	40a7      	lsls	r7, r4
    3da0:	433d      	orrs	r5, r7
    3da2:	1e6f      	subs	r7, r5, #1
    3da4:	41bd      	sbcs	r5, r7
    3da6:	4644      	mov	r4, r8
    3da8:	2700      	movs	r7, #0
    3daa:	4325      	orrs	r5, r4
    3dac:	e746      	b.n	3c3c <__aeabi_dsub+0x520>
    3dae:	2700      	movs	r7, #0
    3db0:	e7cf      	b.n	3d52 <__aeabi_dsub+0x636>
    3db2:	000d      	movs	r5, r1
    3db4:	e573      	b.n	389e <__aeabi_dsub+0x182>
    3db6:	2700      	movs	r7, #0
    3db8:	e7f2      	b.n	3da0 <__aeabi_dsub+0x684>
    3dba:	46c0      	nop			; (mov r8, r8)
    3dbc:	000007ff 	.word	0x000007ff
    3dc0:	ff7fffff 	.word	0xff7fffff

00003dc4 <__aeabi_d2iz>:
    3dc4:	030b      	lsls	r3, r1, #12
    3dc6:	b530      	push	{r4, r5, lr}
    3dc8:	4d13      	ldr	r5, [pc, #76]	; (3e18 <__aeabi_d2iz+0x54>)
    3dca:	0b1a      	lsrs	r2, r3, #12
    3dcc:	004b      	lsls	r3, r1, #1
    3dce:	0d5b      	lsrs	r3, r3, #21
    3dd0:	0fc9      	lsrs	r1, r1, #31
    3dd2:	2400      	movs	r4, #0
    3dd4:	42ab      	cmp	r3, r5
    3dd6:	dd11      	ble.n	3dfc <__aeabi_d2iz+0x38>
    3dd8:	4c10      	ldr	r4, [pc, #64]	; (3e1c <__aeabi_d2iz+0x58>)
    3dda:	42a3      	cmp	r3, r4
    3ddc:	dc10      	bgt.n	3e00 <__aeabi_d2iz+0x3c>
    3dde:	2480      	movs	r4, #128	; 0x80
    3de0:	0364      	lsls	r4, r4, #13
    3de2:	4322      	orrs	r2, r4
    3de4:	4c0e      	ldr	r4, [pc, #56]	; (3e20 <__aeabi_d2iz+0x5c>)
    3de6:	1ae4      	subs	r4, r4, r3
    3de8:	2c1f      	cmp	r4, #31
    3dea:	dd0c      	ble.n	3e06 <__aeabi_d2iz+0x42>
    3dec:	480d      	ldr	r0, [pc, #52]	; (3e24 <__aeabi_d2iz+0x60>)
    3dee:	1ac3      	subs	r3, r0, r3
    3df0:	40da      	lsrs	r2, r3
    3df2:	0013      	movs	r3, r2
    3df4:	425c      	negs	r4, r3
    3df6:	2900      	cmp	r1, #0
    3df8:	d100      	bne.n	3dfc <__aeabi_d2iz+0x38>
    3dfa:	001c      	movs	r4, r3
    3dfc:	0020      	movs	r0, r4
    3dfe:	bd30      	pop	{r4, r5, pc}
    3e00:	4b09      	ldr	r3, [pc, #36]	; (3e28 <__aeabi_d2iz+0x64>)
    3e02:	18cc      	adds	r4, r1, r3
    3e04:	e7fa      	b.n	3dfc <__aeabi_d2iz+0x38>
    3e06:	40e0      	lsrs	r0, r4
    3e08:	4c08      	ldr	r4, [pc, #32]	; (3e2c <__aeabi_d2iz+0x68>)
    3e0a:	46a4      	mov	ip, r4
    3e0c:	4463      	add	r3, ip
    3e0e:	409a      	lsls	r2, r3
    3e10:	0013      	movs	r3, r2
    3e12:	4303      	orrs	r3, r0
    3e14:	e7ee      	b.n	3df4 <__aeabi_d2iz+0x30>
    3e16:	46c0      	nop			; (mov r8, r8)
    3e18:	000003fe 	.word	0x000003fe
    3e1c:	0000041d 	.word	0x0000041d
    3e20:	00000433 	.word	0x00000433
    3e24:	00000413 	.word	0x00000413
    3e28:	7fffffff 	.word	0x7fffffff
    3e2c:	fffffbed 	.word	0xfffffbed

00003e30 <__aeabi_ui2d>:
    3e30:	b570      	push	{r4, r5, r6, lr}
    3e32:	1e05      	subs	r5, r0, #0
    3e34:	d028      	beq.n	3e88 <__aeabi_ui2d+0x58>
    3e36:	f000 f833 	bl	3ea0 <__clzsi2>
    3e3a:	4b15      	ldr	r3, [pc, #84]	; (3e90 <__aeabi_ui2d+0x60>)
    3e3c:	4a15      	ldr	r2, [pc, #84]	; (3e94 <__aeabi_ui2d+0x64>)
    3e3e:	1a1b      	subs	r3, r3, r0
    3e40:	1ad2      	subs	r2, r2, r3
    3e42:	2a1f      	cmp	r2, #31
    3e44:	dd16      	ble.n	3e74 <__aeabi_ui2d+0x44>
    3e46:	002c      	movs	r4, r5
    3e48:	4a13      	ldr	r2, [pc, #76]	; (3e98 <__aeabi_ui2d+0x68>)
    3e4a:	2500      	movs	r5, #0
    3e4c:	1ad2      	subs	r2, r2, r3
    3e4e:	4094      	lsls	r4, r2
    3e50:	055a      	lsls	r2, r3, #21
    3e52:	0324      	lsls	r4, r4, #12
    3e54:	0b24      	lsrs	r4, r4, #12
    3e56:	0d52      	lsrs	r2, r2, #21
    3e58:	2100      	movs	r1, #0
    3e5a:	0324      	lsls	r4, r4, #12
    3e5c:	0d0b      	lsrs	r3, r1, #20
    3e5e:	0b24      	lsrs	r4, r4, #12
    3e60:	051b      	lsls	r3, r3, #20
    3e62:	4323      	orrs	r3, r4
    3e64:	4c0d      	ldr	r4, [pc, #52]	; (3e9c <__aeabi_ui2d+0x6c>)
    3e66:	0512      	lsls	r2, r2, #20
    3e68:	4023      	ands	r3, r4
    3e6a:	4313      	orrs	r3, r2
    3e6c:	005b      	lsls	r3, r3, #1
    3e6e:	0028      	movs	r0, r5
    3e70:	0859      	lsrs	r1, r3, #1
    3e72:	bd70      	pop	{r4, r5, r6, pc}
    3e74:	210b      	movs	r1, #11
    3e76:	002c      	movs	r4, r5
    3e78:	1a08      	subs	r0, r1, r0
    3e7a:	40c4      	lsrs	r4, r0
    3e7c:	4095      	lsls	r5, r2
    3e7e:	0324      	lsls	r4, r4, #12
    3e80:	055a      	lsls	r2, r3, #21
    3e82:	0b24      	lsrs	r4, r4, #12
    3e84:	0d52      	lsrs	r2, r2, #21
    3e86:	e7e7      	b.n	3e58 <__aeabi_ui2d+0x28>
    3e88:	2200      	movs	r2, #0
    3e8a:	2400      	movs	r4, #0
    3e8c:	e7e4      	b.n	3e58 <__aeabi_ui2d+0x28>
    3e8e:	46c0      	nop			; (mov r8, r8)
    3e90:	0000041e 	.word	0x0000041e
    3e94:	00000433 	.word	0x00000433
    3e98:	00000413 	.word	0x00000413
    3e9c:	800fffff 	.word	0x800fffff

00003ea0 <__clzsi2>:
    3ea0:	211c      	movs	r1, #28
    3ea2:	2301      	movs	r3, #1
    3ea4:	041b      	lsls	r3, r3, #16
    3ea6:	4298      	cmp	r0, r3
    3ea8:	d301      	bcc.n	3eae <__clzsi2+0xe>
    3eaa:	0c00      	lsrs	r0, r0, #16
    3eac:	3910      	subs	r1, #16
    3eae:	0a1b      	lsrs	r3, r3, #8
    3eb0:	4298      	cmp	r0, r3
    3eb2:	d301      	bcc.n	3eb8 <__clzsi2+0x18>
    3eb4:	0a00      	lsrs	r0, r0, #8
    3eb6:	3908      	subs	r1, #8
    3eb8:	091b      	lsrs	r3, r3, #4
    3eba:	4298      	cmp	r0, r3
    3ebc:	d301      	bcc.n	3ec2 <__clzsi2+0x22>
    3ebe:	0900      	lsrs	r0, r0, #4
    3ec0:	3904      	subs	r1, #4
    3ec2:	a202      	add	r2, pc, #8	; (adr r2, 3ecc <__clzsi2+0x2c>)
    3ec4:	5c10      	ldrb	r0, [r2, r0]
    3ec6:	1840      	adds	r0, r0, r1
    3ec8:	4770      	bx	lr
    3eca:	46c0      	nop			; (mov r8, r8)
    3ecc:	02020304 	.word	0x02020304
    3ed0:	01010101 	.word	0x01010101
	...

00003edc <__libc_init_array>:
    3edc:	4b0e      	ldr	r3, [pc, #56]	; (3f18 <__libc_init_array+0x3c>)
    3ede:	b570      	push	{r4, r5, r6, lr}
    3ee0:	2500      	movs	r5, #0
    3ee2:	001e      	movs	r6, r3
    3ee4:	4c0d      	ldr	r4, [pc, #52]	; (3f1c <__libc_init_array+0x40>)
    3ee6:	1ae4      	subs	r4, r4, r3
    3ee8:	10a4      	asrs	r4, r4, #2
    3eea:	42a5      	cmp	r5, r4
    3eec:	d004      	beq.n	3ef8 <__libc_init_array+0x1c>
    3eee:	00ab      	lsls	r3, r5, #2
    3ef0:	58f3      	ldr	r3, [r6, r3]
    3ef2:	4798      	blx	r3
    3ef4:	3501      	adds	r5, #1
    3ef6:	e7f8      	b.n	3eea <__libc_init_array+0xe>
    3ef8:	f001 f9ca 	bl	5290 <_init>
    3efc:	4b08      	ldr	r3, [pc, #32]	; (3f20 <__libc_init_array+0x44>)
    3efe:	2500      	movs	r5, #0
    3f00:	001e      	movs	r6, r3
    3f02:	4c08      	ldr	r4, [pc, #32]	; (3f24 <__libc_init_array+0x48>)
    3f04:	1ae4      	subs	r4, r4, r3
    3f06:	10a4      	asrs	r4, r4, #2
    3f08:	42a5      	cmp	r5, r4
    3f0a:	d004      	beq.n	3f16 <__libc_init_array+0x3a>
    3f0c:	00ab      	lsls	r3, r5, #2
    3f0e:	58f3      	ldr	r3, [r6, r3]
    3f10:	4798      	blx	r3
    3f12:	3501      	adds	r5, #1
    3f14:	e7f8      	b.n	3f08 <__libc_init_array+0x2c>
    3f16:	bd70      	pop	{r4, r5, r6, pc}
    3f18:	0000529c 	.word	0x0000529c
    3f1c:	0000529c 	.word	0x0000529c
    3f20:	0000529c 	.word	0x0000529c
    3f24:	000052a0 	.word	0x000052a0

00003f28 <memcpy>:
    3f28:	2300      	movs	r3, #0
    3f2a:	b510      	push	{r4, lr}
    3f2c:	429a      	cmp	r2, r3
    3f2e:	d003      	beq.n	3f38 <memcpy+0x10>
    3f30:	5ccc      	ldrb	r4, [r1, r3]
    3f32:	54c4      	strb	r4, [r0, r3]
    3f34:	3301      	adds	r3, #1
    3f36:	e7f9      	b.n	3f2c <memcpy+0x4>
    3f38:	bd10      	pop	{r4, pc}

00003f3a <memset>:
    3f3a:	0003      	movs	r3, r0
    3f3c:	1882      	adds	r2, r0, r2
    3f3e:	4293      	cmp	r3, r2
    3f40:	d002      	beq.n	3f48 <memset+0xe>
    3f42:	7019      	strb	r1, [r3, #0]
    3f44:	3301      	adds	r3, #1
    3f46:	e7fa      	b.n	3f3e <memset+0x4>
    3f48:	4770      	bx	lr
	...

00003f4c <iprintf>:
    3f4c:	b40f      	push	{r0, r1, r2, r3}
    3f4e:	4b0b      	ldr	r3, [pc, #44]	; (3f7c <iprintf+0x30>)
    3f50:	b513      	push	{r0, r1, r4, lr}
    3f52:	681c      	ldr	r4, [r3, #0]
    3f54:	2c00      	cmp	r4, #0
    3f56:	d005      	beq.n	3f64 <iprintf+0x18>
    3f58:	69a3      	ldr	r3, [r4, #24]
    3f5a:	2b00      	cmp	r3, #0
    3f5c:	d102      	bne.n	3f64 <iprintf+0x18>
    3f5e:	0020      	movs	r0, r4
    3f60:	f000 fb0a 	bl	4578 <__sinit>
    3f64:	ab05      	add	r3, sp, #20
    3f66:	9a04      	ldr	r2, [sp, #16]
    3f68:	68a1      	ldr	r1, [r4, #8]
    3f6a:	0020      	movs	r0, r4
    3f6c:	9301      	str	r3, [sp, #4]
    3f6e:	f000 fcc9 	bl	4904 <_vfiprintf_r>
    3f72:	bc16      	pop	{r1, r2, r4}
    3f74:	bc08      	pop	{r3}
    3f76:	b004      	add	sp, #16
    3f78:	4718      	bx	r3
    3f7a:	46c0      	nop			; (mov r8, r8)
    3f7c:	20000080 	.word	0x20000080

00003f80 <putchar>:
    3f80:	4b08      	ldr	r3, [pc, #32]	; (3fa4 <putchar+0x24>)
    3f82:	b570      	push	{r4, r5, r6, lr}
    3f84:	681c      	ldr	r4, [r3, #0]
    3f86:	0005      	movs	r5, r0
    3f88:	2c00      	cmp	r4, #0
    3f8a:	d005      	beq.n	3f98 <putchar+0x18>
    3f8c:	69a3      	ldr	r3, [r4, #24]
    3f8e:	2b00      	cmp	r3, #0
    3f90:	d102      	bne.n	3f98 <putchar+0x18>
    3f92:	0020      	movs	r0, r4
    3f94:	f000 faf0 	bl	4578 <__sinit>
    3f98:	0029      	movs	r1, r5
    3f9a:	68a2      	ldr	r2, [r4, #8]
    3f9c:	0020      	movs	r0, r4
    3f9e:	f000 ff5d 	bl	4e5c <_putc_r>
    3fa2:	bd70      	pop	{r4, r5, r6, pc}
    3fa4:	20000080 	.word	0x20000080

00003fa8 <_puts_r>:
    3fa8:	b570      	push	{r4, r5, r6, lr}
    3faa:	0005      	movs	r5, r0
    3fac:	000e      	movs	r6, r1
    3fae:	2800      	cmp	r0, #0
    3fb0:	d004      	beq.n	3fbc <_puts_r+0x14>
    3fb2:	6983      	ldr	r3, [r0, #24]
    3fb4:	2b00      	cmp	r3, #0
    3fb6:	d101      	bne.n	3fbc <_puts_r+0x14>
    3fb8:	f000 fade 	bl	4578 <__sinit>
    3fbc:	69ab      	ldr	r3, [r5, #24]
    3fbe:	68ac      	ldr	r4, [r5, #8]
    3fc0:	2b00      	cmp	r3, #0
    3fc2:	d102      	bne.n	3fca <_puts_r+0x22>
    3fc4:	0028      	movs	r0, r5
    3fc6:	f000 fad7 	bl	4578 <__sinit>
    3fca:	4b25      	ldr	r3, [pc, #148]	; (4060 <_puts_r+0xb8>)
    3fcc:	429c      	cmp	r4, r3
    3fce:	d101      	bne.n	3fd4 <_puts_r+0x2c>
    3fd0:	686c      	ldr	r4, [r5, #4]
    3fd2:	e008      	b.n	3fe6 <_puts_r+0x3e>
    3fd4:	4b23      	ldr	r3, [pc, #140]	; (4064 <_puts_r+0xbc>)
    3fd6:	429c      	cmp	r4, r3
    3fd8:	d101      	bne.n	3fde <_puts_r+0x36>
    3fda:	68ac      	ldr	r4, [r5, #8]
    3fdc:	e003      	b.n	3fe6 <_puts_r+0x3e>
    3fde:	4b22      	ldr	r3, [pc, #136]	; (4068 <_puts_r+0xc0>)
    3fe0:	429c      	cmp	r4, r3
    3fe2:	d100      	bne.n	3fe6 <_puts_r+0x3e>
    3fe4:	68ec      	ldr	r4, [r5, #12]
    3fe6:	89a3      	ldrh	r3, [r4, #12]
    3fe8:	071b      	lsls	r3, r3, #28
    3fea:	d502      	bpl.n	3ff2 <_puts_r+0x4a>
    3fec:	6923      	ldr	r3, [r4, #16]
    3fee:	2b00      	cmp	r3, #0
    3ff0:	d111      	bne.n	4016 <_puts_r+0x6e>
    3ff2:	0021      	movs	r1, r4
    3ff4:	0028      	movs	r0, r5
    3ff6:	f000 f955 	bl	42a4 <__swsetup_r>
    3ffa:	2800      	cmp	r0, #0
    3ffc:	d00b      	beq.n	4016 <_puts_r+0x6e>
    3ffe:	2001      	movs	r0, #1
    4000:	4240      	negs	r0, r0
    4002:	e02b      	b.n	405c <_puts_r+0xb4>
    4004:	3b01      	subs	r3, #1
    4006:	3601      	adds	r6, #1
    4008:	60a3      	str	r3, [r4, #8]
    400a:	2b00      	cmp	r3, #0
    400c:	db08      	blt.n	4020 <_puts_r+0x78>
    400e:	6823      	ldr	r3, [r4, #0]
    4010:	1c5a      	adds	r2, r3, #1
    4012:	6022      	str	r2, [r4, #0]
    4014:	7019      	strb	r1, [r3, #0]
    4016:	7831      	ldrb	r1, [r6, #0]
    4018:	68a3      	ldr	r3, [r4, #8]
    401a:	2900      	cmp	r1, #0
    401c:	d1f2      	bne.n	4004 <_puts_r+0x5c>
    401e:	e00b      	b.n	4038 <_puts_r+0x90>
    4020:	69a2      	ldr	r2, [r4, #24]
    4022:	4293      	cmp	r3, r2
    4024:	db01      	blt.n	402a <_puts_r+0x82>
    4026:	290a      	cmp	r1, #10
    4028:	d1f1      	bne.n	400e <_puts_r+0x66>
    402a:	0022      	movs	r2, r4
    402c:	0028      	movs	r0, r5
    402e:	f000 f8e1 	bl	41f4 <__swbuf_r>
    4032:	1c43      	adds	r3, r0, #1
    4034:	d1ef      	bne.n	4016 <_puts_r+0x6e>
    4036:	e7e2      	b.n	3ffe <_puts_r+0x56>
    4038:	3b01      	subs	r3, #1
    403a:	60a3      	str	r3, [r4, #8]
    403c:	2b00      	cmp	r3, #0
    403e:	da08      	bge.n	4052 <_puts_r+0xaa>
    4040:	0022      	movs	r2, r4
    4042:	310a      	adds	r1, #10
    4044:	0028      	movs	r0, r5
    4046:	f000 f8d5 	bl	41f4 <__swbuf_r>
    404a:	1c43      	adds	r3, r0, #1
    404c:	d0d7      	beq.n	3ffe <_puts_r+0x56>
    404e:	200a      	movs	r0, #10
    4050:	e004      	b.n	405c <_puts_r+0xb4>
    4052:	200a      	movs	r0, #10
    4054:	6823      	ldr	r3, [r4, #0]
    4056:	1c5a      	adds	r2, r3, #1
    4058:	6022      	str	r2, [r4, #0]
    405a:	7018      	strb	r0, [r3, #0]
    405c:	bd70      	pop	{r4, r5, r6, pc}
    405e:	46c0      	nop			; (mov r8, r8)
    4060:	000051fc 	.word	0x000051fc
    4064:	0000521c 	.word	0x0000521c
    4068:	0000523c 	.word	0x0000523c

0000406c <puts>:
    406c:	b510      	push	{r4, lr}
    406e:	4b03      	ldr	r3, [pc, #12]	; (407c <puts+0x10>)
    4070:	0001      	movs	r1, r0
    4072:	6818      	ldr	r0, [r3, #0]
    4074:	f7ff ff98 	bl	3fa8 <_puts_r>
    4078:	bd10      	pop	{r4, pc}
    407a:	46c0      	nop			; (mov r8, r8)
    407c:	20000080 	.word	0x20000080

00004080 <setbuf>:
    4080:	424a      	negs	r2, r1
    4082:	414a      	adcs	r2, r1
    4084:	2380      	movs	r3, #128	; 0x80
    4086:	b510      	push	{r4, lr}
    4088:	0052      	lsls	r2, r2, #1
    408a:	00db      	lsls	r3, r3, #3
    408c:	f000 f802 	bl	4094 <setvbuf>
    4090:	bd10      	pop	{r4, pc}
	...

00004094 <setvbuf>:
    4094:	b5f0      	push	{r4, r5, r6, r7, lr}
    4096:	001d      	movs	r5, r3
    4098:	4b51      	ldr	r3, [pc, #324]	; (41e0 <setvbuf+0x14c>)
    409a:	b085      	sub	sp, #20
    409c:	681e      	ldr	r6, [r3, #0]
    409e:	0004      	movs	r4, r0
    40a0:	000f      	movs	r7, r1
    40a2:	9200      	str	r2, [sp, #0]
    40a4:	2e00      	cmp	r6, #0
    40a6:	d005      	beq.n	40b4 <setvbuf+0x20>
    40a8:	69b3      	ldr	r3, [r6, #24]
    40aa:	2b00      	cmp	r3, #0
    40ac:	d102      	bne.n	40b4 <setvbuf+0x20>
    40ae:	0030      	movs	r0, r6
    40b0:	f000 fa62 	bl	4578 <__sinit>
    40b4:	4b4b      	ldr	r3, [pc, #300]	; (41e4 <setvbuf+0x150>)
    40b6:	429c      	cmp	r4, r3
    40b8:	d101      	bne.n	40be <setvbuf+0x2a>
    40ba:	6874      	ldr	r4, [r6, #4]
    40bc:	e008      	b.n	40d0 <setvbuf+0x3c>
    40be:	4b4a      	ldr	r3, [pc, #296]	; (41e8 <setvbuf+0x154>)
    40c0:	429c      	cmp	r4, r3
    40c2:	d101      	bne.n	40c8 <setvbuf+0x34>
    40c4:	68b4      	ldr	r4, [r6, #8]
    40c6:	e003      	b.n	40d0 <setvbuf+0x3c>
    40c8:	4b48      	ldr	r3, [pc, #288]	; (41ec <setvbuf+0x158>)
    40ca:	429c      	cmp	r4, r3
    40cc:	d100      	bne.n	40d0 <setvbuf+0x3c>
    40ce:	68f4      	ldr	r4, [r6, #12]
    40d0:	9b00      	ldr	r3, [sp, #0]
    40d2:	2b02      	cmp	r3, #2
    40d4:	d005      	beq.n	40e2 <setvbuf+0x4e>
    40d6:	2b01      	cmp	r3, #1
    40d8:	d900      	bls.n	40dc <setvbuf+0x48>
    40da:	e07c      	b.n	41d6 <setvbuf+0x142>
    40dc:	2d00      	cmp	r5, #0
    40de:	da00      	bge.n	40e2 <setvbuf+0x4e>
    40e0:	e079      	b.n	41d6 <setvbuf+0x142>
    40e2:	0021      	movs	r1, r4
    40e4:	0030      	movs	r0, r6
    40e6:	f000 f9d9 	bl	449c <_fflush_r>
    40ea:	6b61      	ldr	r1, [r4, #52]	; 0x34
    40ec:	2900      	cmp	r1, #0
    40ee:	d008      	beq.n	4102 <setvbuf+0x6e>
    40f0:	0023      	movs	r3, r4
    40f2:	3344      	adds	r3, #68	; 0x44
    40f4:	4299      	cmp	r1, r3
    40f6:	d002      	beq.n	40fe <setvbuf+0x6a>
    40f8:	0030      	movs	r0, r6
    40fa:	f000 fb3f 	bl	477c <_free_r>
    40fe:	2300      	movs	r3, #0
    4100:	6363      	str	r3, [r4, #52]	; 0x34
    4102:	2300      	movs	r3, #0
    4104:	61a3      	str	r3, [r4, #24]
    4106:	6063      	str	r3, [r4, #4]
    4108:	89a3      	ldrh	r3, [r4, #12]
    410a:	061b      	lsls	r3, r3, #24
    410c:	d503      	bpl.n	4116 <setvbuf+0x82>
    410e:	6921      	ldr	r1, [r4, #16]
    4110:	0030      	movs	r0, r6
    4112:	f000 fb33 	bl	477c <_free_r>
    4116:	89a2      	ldrh	r2, [r4, #12]
    4118:	4b35      	ldr	r3, [pc, #212]	; (41f0 <setvbuf+0x15c>)
    411a:	4013      	ands	r3, r2
    411c:	81a3      	strh	r3, [r4, #12]
    411e:	9b00      	ldr	r3, [sp, #0]
    4120:	2b02      	cmp	r3, #2
    4122:	d021      	beq.n	4168 <setvbuf+0xd4>
    4124:	ab03      	add	r3, sp, #12
    4126:	aa02      	add	r2, sp, #8
    4128:	0021      	movs	r1, r4
    412a:	0030      	movs	r0, r6
    412c:	f000 fab8 	bl	46a0 <__swhatbuf_r>
    4130:	89a3      	ldrh	r3, [r4, #12]
    4132:	4318      	orrs	r0, r3
    4134:	81a0      	strh	r0, [r4, #12]
    4136:	2d00      	cmp	r5, #0
    4138:	d101      	bne.n	413e <setvbuf+0xaa>
    413a:	9d02      	ldr	r5, [sp, #8]
    413c:	e001      	b.n	4142 <setvbuf+0xae>
    413e:	2f00      	cmp	r7, #0
    4140:	d125      	bne.n	418e <setvbuf+0xfa>
    4142:	0028      	movs	r0, r5
    4144:	f000 fb10 	bl	4768 <malloc>
    4148:	9501      	str	r5, [sp, #4]
    414a:	1e07      	subs	r7, r0, #0
    414c:	d11a      	bne.n	4184 <setvbuf+0xf0>
    414e:	9b02      	ldr	r3, [sp, #8]
    4150:	9301      	str	r3, [sp, #4]
    4152:	42ab      	cmp	r3, r5
    4154:	d102      	bne.n	415c <setvbuf+0xc8>
    4156:	2001      	movs	r0, #1
    4158:	4240      	negs	r0, r0
    415a:	e006      	b.n	416a <setvbuf+0xd6>
    415c:	9801      	ldr	r0, [sp, #4]
    415e:	f000 fb03 	bl	4768 <malloc>
    4162:	1e07      	subs	r7, r0, #0
    4164:	d10e      	bne.n	4184 <setvbuf+0xf0>
    4166:	e7f6      	b.n	4156 <setvbuf+0xc2>
    4168:	2000      	movs	r0, #0
    416a:	2202      	movs	r2, #2
    416c:	89a3      	ldrh	r3, [r4, #12]
    416e:	4313      	orrs	r3, r2
    4170:	81a3      	strh	r3, [r4, #12]
    4172:	2300      	movs	r3, #0
    4174:	60a3      	str	r3, [r4, #8]
    4176:	0023      	movs	r3, r4
    4178:	3347      	adds	r3, #71	; 0x47
    417a:	6023      	str	r3, [r4, #0]
    417c:	6123      	str	r3, [r4, #16]
    417e:	2301      	movs	r3, #1
    4180:	6163      	str	r3, [r4, #20]
    4182:	e02a      	b.n	41da <setvbuf+0x146>
    4184:	2280      	movs	r2, #128	; 0x80
    4186:	89a3      	ldrh	r3, [r4, #12]
    4188:	9d01      	ldr	r5, [sp, #4]
    418a:	4313      	orrs	r3, r2
    418c:	81a3      	strh	r3, [r4, #12]
    418e:	69b3      	ldr	r3, [r6, #24]
    4190:	2b00      	cmp	r3, #0
    4192:	d102      	bne.n	419a <setvbuf+0x106>
    4194:	0030      	movs	r0, r6
    4196:	f000 f9ef 	bl	4578 <__sinit>
    419a:	9b00      	ldr	r3, [sp, #0]
    419c:	2b01      	cmp	r3, #1
    419e:	d103      	bne.n	41a8 <setvbuf+0x114>
    41a0:	89a3      	ldrh	r3, [r4, #12]
    41a2:	9a00      	ldr	r2, [sp, #0]
    41a4:	431a      	orrs	r2, r3
    41a6:	81a2      	strh	r2, [r4, #12]
    41a8:	2308      	movs	r3, #8
    41aa:	89a2      	ldrh	r2, [r4, #12]
    41ac:	6027      	str	r7, [r4, #0]
    41ae:	4013      	ands	r3, r2
    41b0:	6127      	str	r7, [r4, #16]
    41b2:	6165      	str	r5, [r4, #20]
    41b4:	1e18      	subs	r0, r3, #0
    41b6:	d00c      	beq.n	41d2 <setvbuf+0x13e>
    41b8:	2301      	movs	r3, #1
    41ba:	401a      	ands	r2, r3
    41bc:	2300      	movs	r3, #0
    41be:	1e10      	subs	r0, r2, #0
    41c0:	4298      	cmp	r0, r3
    41c2:	d004      	beq.n	41ce <setvbuf+0x13a>
    41c4:	426d      	negs	r5, r5
    41c6:	60a3      	str	r3, [r4, #8]
    41c8:	61a5      	str	r5, [r4, #24]
    41ca:	0018      	movs	r0, r3
    41cc:	e005      	b.n	41da <setvbuf+0x146>
    41ce:	60a5      	str	r5, [r4, #8]
    41d0:	e003      	b.n	41da <setvbuf+0x146>
    41d2:	60a3      	str	r3, [r4, #8]
    41d4:	e001      	b.n	41da <setvbuf+0x146>
    41d6:	2001      	movs	r0, #1
    41d8:	4240      	negs	r0, r0
    41da:	b005      	add	sp, #20
    41dc:	bdf0      	pop	{r4, r5, r6, r7, pc}
    41de:	46c0      	nop			; (mov r8, r8)
    41e0:	20000080 	.word	0x20000080
    41e4:	000051fc 	.word	0x000051fc
    41e8:	0000521c 	.word	0x0000521c
    41ec:	0000523c 	.word	0x0000523c
    41f0:	fffff35c 	.word	0xfffff35c

000041f4 <__swbuf_r>:
    41f4:	b5f8      	push	{r3, r4, r5, r6, r7, lr}
    41f6:	0005      	movs	r5, r0
    41f8:	000f      	movs	r7, r1
    41fa:	0014      	movs	r4, r2
    41fc:	2800      	cmp	r0, #0
    41fe:	d004      	beq.n	420a <__swbuf_r+0x16>
    4200:	6983      	ldr	r3, [r0, #24]
    4202:	2b00      	cmp	r3, #0
    4204:	d101      	bne.n	420a <__swbuf_r+0x16>
    4206:	f000 f9b7 	bl	4578 <__sinit>
    420a:	4b23      	ldr	r3, [pc, #140]	; (4298 <__swbuf_r+0xa4>)
    420c:	429c      	cmp	r4, r3
    420e:	d101      	bne.n	4214 <__swbuf_r+0x20>
    4210:	686c      	ldr	r4, [r5, #4]
    4212:	e008      	b.n	4226 <__swbuf_r+0x32>
    4214:	4b21      	ldr	r3, [pc, #132]	; (429c <__swbuf_r+0xa8>)
    4216:	429c      	cmp	r4, r3
    4218:	d101      	bne.n	421e <__swbuf_r+0x2a>
    421a:	68ac      	ldr	r4, [r5, #8]
    421c:	e003      	b.n	4226 <__swbuf_r+0x32>
    421e:	4b20      	ldr	r3, [pc, #128]	; (42a0 <__swbuf_r+0xac>)
    4220:	429c      	cmp	r4, r3
    4222:	d100      	bne.n	4226 <__swbuf_r+0x32>
    4224:	68ec      	ldr	r4, [r5, #12]
    4226:	69a3      	ldr	r3, [r4, #24]
    4228:	60a3      	str	r3, [r4, #8]
    422a:	89a3      	ldrh	r3, [r4, #12]
    422c:	071b      	lsls	r3, r3, #28
    422e:	d50a      	bpl.n	4246 <__swbuf_r+0x52>
    4230:	6923      	ldr	r3, [r4, #16]
    4232:	2b00      	cmp	r3, #0
    4234:	d007      	beq.n	4246 <__swbuf_r+0x52>
    4236:	6823      	ldr	r3, [r4, #0]
    4238:	6922      	ldr	r2, [r4, #16]
    423a:	b2fe      	uxtb	r6, r7
    423c:	1a98      	subs	r0, r3, r2
    423e:	6963      	ldr	r3, [r4, #20]
    4240:	4298      	cmp	r0, r3
    4242:	db0f      	blt.n	4264 <__swbuf_r+0x70>
    4244:	e008      	b.n	4258 <__swbuf_r+0x64>
    4246:	0021      	movs	r1, r4
    4248:	0028      	movs	r0, r5
    424a:	f000 f82b 	bl	42a4 <__swsetup_r>
    424e:	2800      	cmp	r0, #0
    4250:	d0f1      	beq.n	4236 <__swbuf_r+0x42>
    4252:	2001      	movs	r0, #1
    4254:	4240      	negs	r0, r0
    4256:	e01d      	b.n	4294 <__swbuf_r+0xa0>
    4258:	0021      	movs	r1, r4
    425a:	0028      	movs	r0, r5
    425c:	f000 f91e 	bl	449c <_fflush_r>
    4260:	2800      	cmp	r0, #0
    4262:	d1f6      	bne.n	4252 <__swbuf_r+0x5e>
    4264:	68a3      	ldr	r3, [r4, #8]
    4266:	3001      	adds	r0, #1
    4268:	3b01      	subs	r3, #1
    426a:	60a3      	str	r3, [r4, #8]
    426c:	6823      	ldr	r3, [r4, #0]
    426e:	1c5a      	adds	r2, r3, #1
    4270:	6022      	str	r2, [r4, #0]
    4272:	701f      	strb	r7, [r3, #0]
    4274:	6963      	ldr	r3, [r4, #20]
    4276:	4298      	cmp	r0, r3
    4278:	d005      	beq.n	4286 <__swbuf_r+0x92>
    427a:	89a3      	ldrh	r3, [r4, #12]
    427c:	0030      	movs	r0, r6
    427e:	07db      	lsls	r3, r3, #31
    4280:	d508      	bpl.n	4294 <__swbuf_r+0xa0>
    4282:	2e0a      	cmp	r6, #10
    4284:	d106      	bne.n	4294 <__swbuf_r+0xa0>
    4286:	0021      	movs	r1, r4
    4288:	0028      	movs	r0, r5
    428a:	f000 f907 	bl	449c <_fflush_r>
    428e:	2800      	cmp	r0, #0
    4290:	d1df      	bne.n	4252 <__swbuf_r+0x5e>
    4292:	0030      	movs	r0, r6
    4294:	bdf8      	pop	{r3, r4, r5, r6, r7, pc}
    4296:	46c0      	nop			; (mov r8, r8)
    4298:	000051fc 	.word	0x000051fc
    429c:	0000521c 	.word	0x0000521c
    42a0:	0000523c 	.word	0x0000523c

000042a4 <__swsetup_r>:
    42a4:	4b36      	ldr	r3, [pc, #216]	; (4380 <__swsetup_r+0xdc>)
    42a6:	b570      	push	{r4, r5, r6, lr}
    42a8:	681d      	ldr	r5, [r3, #0]
    42aa:	0006      	movs	r6, r0
    42ac:	000c      	movs	r4, r1
    42ae:	2d00      	cmp	r5, #0
    42b0:	d005      	beq.n	42be <__swsetup_r+0x1a>
    42b2:	69ab      	ldr	r3, [r5, #24]
    42b4:	2b00      	cmp	r3, #0
    42b6:	d102      	bne.n	42be <__swsetup_r+0x1a>
    42b8:	0028      	movs	r0, r5
    42ba:	f000 f95d 	bl	4578 <__sinit>
    42be:	4b31      	ldr	r3, [pc, #196]	; (4384 <__swsetup_r+0xe0>)
    42c0:	429c      	cmp	r4, r3
    42c2:	d101      	bne.n	42c8 <__swsetup_r+0x24>
    42c4:	686c      	ldr	r4, [r5, #4]
    42c6:	e008      	b.n	42da <__swsetup_r+0x36>
    42c8:	4b2f      	ldr	r3, [pc, #188]	; (4388 <__swsetup_r+0xe4>)
    42ca:	429c      	cmp	r4, r3
    42cc:	d101      	bne.n	42d2 <__swsetup_r+0x2e>
    42ce:	68ac      	ldr	r4, [r5, #8]
    42d0:	e003      	b.n	42da <__swsetup_r+0x36>
    42d2:	4b2e      	ldr	r3, [pc, #184]	; (438c <__swsetup_r+0xe8>)
    42d4:	429c      	cmp	r4, r3
    42d6:	d100      	bne.n	42da <__swsetup_r+0x36>
    42d8:	68ec      	ldr	r4, [r5, #12]
    42da:	220c      	movs	r2, #12
    42dc:	5ea3      	ldrsh	r3, [r4, r2]
    42de:	b29a      	uxth	r2, r3
    42e0:	0711      	lsls	r1, r2, #28
    42e2:	d423      	bmi.n	432c <__swsetup_r+0x88>
    42e4:	06d1      	lsls	r1, r2, #27
    42e6:	d407      	bmi.n	42f8 <__swsetup_r+0x54>
    42e8:	2209      	movs	r2, #9
    42ea:	2001      	movs	r0, #1
    42ec:	6032      	str	r2, [r6, #0]
    42ee:	3237      	adds	r2, #55	; 0x37
    42f0:	4313      	orrs	r3, r2
    42f2:	81a3      	strh	r3, [r4, #12]
    42f4:	4240      	negs	r0, r0
    42f6:	e042      	b.n	437e <__swsetup_r+0xda>
    42f8:	0753      	lsls	r3, r2, #29
    42fa:	d513      	bpl.n	4324 <__swsetup_r+0x80>
    42fc:	6b61      	ldr	r1, [r4, #52]	; 0x34
    42fe:	2900      	cmp	r1, #0
    4300:	d008      	beq.n	4314 <__swsetup_r+0x70>
    4302:	0023      	movs	r3, r4
    4304:	3344      	adds	r3, #68	; 0x44
    4306:	4299      	cmp	r1, r3
    4308:	d002      	beq.n	4310 <__swsetup_r+0x6c>
    430a:	0030      	movs	r0, r6
    430c:	f000 fa36 	bl	477c <_free_r>
    4310:	2300      	movs	r3, #0
    4312:	6363      	str	r3, [r4, #52]	; 0x34
    4314:	2224      	movs	r2, #36	; 0x24
    4316:	89a3      	ldrh	r3, [r4, #12]
    4318:	4393      	bics	r3, r2
    431a:	81a3      	strh	r3, [r4, #12]
    431c:	2300      	movs	r3, #0
    431e:	6063      	str	r3, [r4, #4]
    4320:	6923      	ldr	r3, [r4, #16]
    4322:	6023      	str	r3, [r4, #0]
    4324:	2208      	movs	r2, #8
    4326:	89a3      	ldrh	r3, [r4, #12]
    4328:	4313      	orrs	r3, r2
    432a:	81a3      	strh	r3, [r4, #12]
    432c:	6923      	ldr	r3, [r4, #16]
    432e:	2b00      	cmp	r3, #0
    4330:	d10b      	bne.n	434a <__swsetup_r+0xa6>
    4332:	23a0      	movs	r3, #160	; 0xa0
    4334:	89a2      	ldrh	r2, [r4, #12]
    4336:	009b      	lsls	r3, r3, #2
    4338:	4013      	ands	r3, r2
    433a:	2280      	movs	r2, #128	; 0x80
    433c:	0092      	lsls	r2, r2, #2
    433e:	4293      	cmp	r3, r2
    4340:	d003      	beq.n	434a <__swsetup_r+0xa6>
    4342:	0021      	movs	r1, r4
    4344:	0030      	movs	r0, r6
    4346:	f000 f9d1 	bl	46ec <__smakebuf_r>
    434a:	2301      	movs	r3, #1
    434c:	89a2      	ldrh	r2, [r4, #12]
    434e:	4013      	ands	r3, r2
    4350:	d005      	beq.n	435e <__swsetup_r+0xba>
    4352:	2300      	movs	r3, #0
    4354:	60a3      	str	r3, [r4, #8]
    4356:	6963      	ldr	r3, [r4, #20]
    4358:	425b      	negs	r3, r3
    435a:	61a3      	str	r3, [r4, #24]
    435c:	e003      	b.n	4366 <__swsetup_r+0xc2>
    435e:	0792      	lsls	r2, r2, #30
    4360:	d400      	bmi.n	4364 <__swsetup_r+0xc0>
    4362:	6963      	ldr	r3, [r4, #20]
    4364:	60a3      	str	r3, [r4, #8]
    4366:	2000      	movs	r0, #0
    4368:	6923      	ldr	r3, [r4, #16]
    436a:	4283      	cmp	r3, r0
    436c:	d107      	bne.n	437e <__swsetup_r+0xda>
    436e:	220c      	movs	r2, #12
    4370:	5ea3      	ldrsh	r3, [r4, r2]
    4372:	061a      	lsls	r2, r3, #24
    4374:	d503      	bpl.n	437e <__swsetup_r+0xda>
    4376:	2240      	movs	r2, #64	; 0x40
    4378:	4313      	orrs	r3, r2
    437a:	81a3      	strh	r3, [r4, #12]
    437c:	3801      	subs	r0, #1
    437e:	bd70      	pop	{r4, r5, r6, pc}
    4380:	20000080 	.word	0x20000080
    4384:	000051fc 	.word	0x000051fc
    4388:	0000521c 	.word	0x0000521c
    438c:	0000523c 	.word	0x0000523c

00004390 <__sflush_r>:
    4390:	b5f7      	push	{r0, r1, r2, r4, r5, r6, r7, lr}
    4392:	898a      	ldrh	r2, [r1, #12]
    4394:	0005      	movs	r5, r0
    4396:	000c      	movs	r4, r1
    4398:	0713      	lsls	r3, r2, #28
    439a:	d45a      	bmi.n	4452 <__sflush_r+0xc2>
    439c:	684b      	ldr	r3, [r1, #4]
    439e:	2b00      	cmp	r3, #0
    43a0:	dc02      	bgt.n	43a8 <__sflush_r+0x18>
    43a2:	6c0b      	ldr	r3, [r1, #64]	; 0x40
    43a4:	2b00      	cmp	r3, #0
    43a6:	dd19      	ble.n	43dc <__sflush_r+0x4c>
    43a8:	6ae7      	ldr	r7, [r4, #44]	; 0x2c
    43aa:	2f00      	cmp	r7, #0
    43ac:	d016      	beq.n	43dc <__sflush_r+0x4c>
    43ae:	2300      	movs	r3, #0
    43b0:	682e      	ldr	r6, [r5, #0]
    43b2:	602b      	str	r3, [r5, #0]
    43b4:	2380      	movs	r3, #128	; 0x80
    43b6:	015b      	lsls	r3, r3, #5
    43b8:	401a      	ands	r2, r3
    43ba:	d001      	beq.n	43c0 <__sflush_r+0x30>
    43bc:	6d60      	ldr	r0, [r4, #84]	; 0x54
    43be:	e014      	b.n	43ea <__sflush_r+0x5a>
    43c0:	2301      	movs	r3, #1
    43c2:	6a21      	ldr	r1, [r4, #32]
    43c4:	0028      	movs	r0, r5
    43c6:	47b8      	blx	r7
    43c8:	1c43      	adds	r3, r0, #1
    43ca:	d10e      	bne.n	43ea <__sflush_r+0x5a>
    43cc:	682b      	ldr	r3, [r5, #0]
    43ce:	2b00      	cmp	r3, #0
    43d0:	d00b      	beq.n	43ea <__sflush_r+0x5a>
    43d2:	2b1d      	cmp	r3, #29
    43d4:	d001      	beq.n	43da <__sflush_r+0x4a>
    43d6:	2b16      	cmp	r3, #22
    43d8:	d102      	bne.n	43e0 <__sflush_r+0x50>
    43da:	602e      	str	r6, [r5, #0]
    43dc:	2000      	movs	r0, #0
    43de:	e05a      	b.n	4496 <__sflush_r+0x106>
    43e0:	2240      	movs	r2, #64	; 0x40
    43e2:	89a3      	ldrh	r3, [r4, #12]
    43e4:	4313      	orrs	r3, r2
    43e6:	81a3      	strh	r3, [r4, #12]
    43e8:	e055      	b.n	4496 <__sflush_r+0x106>
    43ea:	89a3      	ldrh	r3, [r4, #12]
    43ec:	075b      	lsls	r3, r3, #29
    43ee:	d506      	bpl.n	43fe <__sflush_r+0x6e>
    43f0:	6863      	ldr	r3, [r4, #4]
    43f2:	1ac0      	subs	r0, r0, r3
    43f4:	6b63      	ldr	r3, [r4, #52]	; 0x34
    43f6:	2b00      	cmp	r3, #0
    43f8:	d001      	beq.n	43fe <__sflush_r+0x6e>
    43fa:	6c23      	ldr	r3, [r4, #64]	; 0x40
    43fc:	1ac0      	subs	r0, r0, r3
    43fe:	2300      	movs	r3, #0
    4400:	0002      	movs	r2, r0
    4402:	6a21      	ldr	r1, [r4, #32]
    4404:	0028      	movs	r0, r5
    4406:	6ae7      	ldr	r7, [r4, #44]	; 0x2c
    4408:	47b8      	blx	r7
    440a:	89a3      	ldrh	r3, [r4, #12]
    440c:	1c42      	adds	r2, r0, #1
    440e:	d106      	bne.n	441e <__sflush_r+0x8e>
    4410:	6829      	ldr	r1, [r5, #0]
    4412:	291d      	cmp	r1, #29
    4414:	d83a      	bhi.n	448c <__sflush_r+0xfc>
    4416:	4a20      	ldr	r2, [pc, #128]	; (4498 <__sflush_r+0x108>)
    4418:	40ca      	lsrs	r2, r1
    441a:	07d2      	lsls	r2, r2, #31
    441c:	d536      	bpl.n	448c <__sflush_r+0xfc>
    441e:	2200      	movs	r2, #0
    4420:	6062      	str	r2, [r4, #4]
    4422:	6922      	ldr	r2, [r4, #16]
    4424:	6022      	str	r2, [r4, #0]
    4426:	04db      	lsls	r3, r3, #19
    4428:	d505      	bpl.n	4436 <__sflush_r+0xa6>
    442a:	1c43      	adds	r3, r0, #1
    442c:	d102      	bne.n	4434 <__sflush_r+0xa4>
    442e:	682b      	ldr	r3, [r5, #0]
    4430:	2b00      	cmp	r3, #0
    4432:	d100      	bne.n	4436 <__sflush_r+0xa6>
    4434:	6560      	str	r0, [r4, #84]	; 0x54
    4436:	6b61      	ldr	r1, [r4, #52]	; 0x34
    4438:	602e      	str	r6, [r5, #0]
    443a:	2900      	cmp	r1, #0
    443c:	d0ce      	beq.n	43dc <__sflush_r+0x4c>
    443e:	0023      	movs	r3, r4
    4440:	3344      	adds	r3, #68	; 0x44
    4442:	4299      	cmp	r1, r3
    4444:	d002      	beq.n	444c <__sflush_r+0xbc>
    4446:	0028      	movs	r0, r5
    4448:	f000 f998 	bl	477c <_free_r>
    444c:	2000      	movs	r0, #0
    444e:	6360      	str	r0, [r4, #52]	; 0x34
    4450:	e021      	b.n	4496 <__sflush_r+0x106>
    4452:	690f      	ldr	r7, [r1, #16]
    4454:	2f00      	cmp	r7, #0
    4456:	d0c1      	beq.n	43dc <__sflush_r+0x4c>
    4458:	680b      	ldr	r3, [r1, #0]
    445a:	600f      	str	r7, [r1, #0]
    445c:	1bdb      	subs	r3, r3, r7
    445e:	9301      	str	r3, [sp, #4]
    4460:	2300      	movs	r3, #0
    4462:	0792      	lsls	r2, r2, #30
    4464:	d100      	bne.n	4468 <__sflush_r+0xd8>
    4466:	694b      	ldr	r3, [r1, #20]
    4468:	60a3      	str	r3, [r4, #8]
    446a:	e003      	b.n	4474 <__sflush_r+0xe4>
    446c:	9b01      	ldr	r3, [sp, #4]
    446e:	183f      	adds	r7, r7, r0
    4470:	1a1b      	subs	r3, r3, r0
    4472:	9301      	str	r3, [sp, #4]
    4474:	9b01      	ldr	r3, [sp, #4]
    4476:	2b00      	cmp	r3, #0
    4478:	ddb0      	ble.n	43dc <__sflush_r+0x4c>
    447a:	9b01      	ldr	r3, [sp, #4]
    447c:	003a      	movs	r2, r7
    447e:	6a21      	ldr	r1, [r4, #32]
    4480:	0028      	movs	r0, r5
    4482:	6aa6      	ldr	r6, [r4, #40]	; 0x28
    4484:	47b0      	blx	r6
    4486:	2800      	cmp	r0, #0
    4488:	dcf0      	bgt.n	446c <__sflush_r+0xdc>
    448a:	89a3      	ldrh	r3, [r4, #12]
    448c:	2240      	movs	r2, #64	; 0x40
    448e:	2001      	movs	r0, #1
    4490:	4313      	orrs	r3, r2
    4492:	81a3      	strh	r3, [r4, #12]
    4494:	4240      	negs	r0, r0
    4496:	bdfe      	pop	{r1, r2, r3, r4, r5, r6, r7, pc}
    4498:	20400001 	.word	0x20400001

0000449c <_fflush_r>:
    449c:	690b      	ldr	r3, [r1, #16]
    449e:	b570      	push	{r4, r5, r6, lr}
    44a0:	0005      	movs	r5, r0
    44a2:	000c      	movs	r4, r1
    44a4:	2b00      	cmp	r3, #0
    44a6:	d101      	bne.n	44ac <_fflush_r+0x10>
    44a8:	2000      	movs	r0, #0
    44aa:	e01c      	b.n	44e6 <_fflush_r+0x4a>
    44ac:	2800      	cmp	r0, #0
    44ae:	d004      	beq.n	44ba <_fflush_r+0x1e>
    44b0:	6983      	ldr	r3, [r0, #24]
    44b2:	2b00      	cmp	r3, #0
    44b4:	d101      	bne.n	44ba <_fflush_r+0x1e>
    44b6:	f000 f85f 	bl	4578 <__sinit>
    44ba:	4b0b      	ldr	r3, [pc, #44]	; (44e8 <_fflush_r+0x4c>)
    44bc:	429c      	cmp	r4, r3
    44be:	d101      	bne.n	44c4 <_fflush_r+0x28>
    44c0:	686c      	ldr	r4, [r5, #4]
    44c2:	e008      	b.n	44d6 <_fflush_r+0x3a>
    44c4:	4b09      	ldr	r3, [pc, #36]	; (44ec <_fflush_r+0x50>)
    44c6:	429c      	cmp	r4, r3
    44c8:	d101      	bne.n	44ce <_fflush_r+0x32>
    44ca:	68ac      	ldr	r4, [r5, #8]
    44cc:	e003      	b.n	44d6 <_fflush_r+0x3a>
    44ce:	4b08      	ldr	r3, [pc, #32]	; (44f0 <_fflush_r+0x54>)
    44d0:	429c      	cmp	r4, r3
    44d2:	d100      	bne.n	44d6 <_fflush_r+0x3a>
    44d4:	68ec      	ldr	r4, [r5, #12]
    44d6:	220c      	movs	r2, #12
    44d8:	5ea3      	ldrsh	r3, [r4, r2]
    44da:	2b00      	cmp	r3, #0
    44dc:	d0e4      	beq.n	44a8 <_fflush_r+0xc>
    44de:	0021      	movs	r1, r4
    44e0:	0028      	movs	r0, r5
    44e2:	f7ff ff55 	bl	4390 <__sflush_r>
    44e6:	bd70      	pop	{r4, r5, r6, pc}
    44e8:	000051fc 	.word	0x000051fc
    44ec:	0000521c 	.word	0x0000521c
    44f0:	0000523c 	.word	0x0000523c

000044f4 <_cleanup_r>:
    44f4:	b510      	push	{r4, lr}
    44f6:	4902      	ldr	r1, [pc, #8]	; (4500 <_cleanup_r+0xc>)
    44f8:	f000 f8b0 	bl	465c <_fwalk_reent>
    44fc:	bd10      	pop	{r4, pc}
    44fe:	46c0      	nop			; (mov r8, r8)
    4500:	0000449d 	.word	0x0000449d

00004504 <std.isra.0>:
    4504:	2300      	movs	r3, #0
    4506:	b510      	push	{r4, lr}
    4508:	0004      	movs	r4, r0
    450a:	6003      	str	r3, [r0, #0]
    450c:	6043      	str	r3, [r0, #4]
    450e:	6083      	str	r3, [r0, #8]
    4510:	8181      	strh	r1, [r0, #12]
    4512:	6643      	str	r3, [r0, #100]	; 0x64
    4514:	81c2      	strh	r2, [r0, #14]
    4516:	6103      	str	r3, [r0, #16]
    4518:	6143      	str	r3, [r0, #20]
    451a:	6183      	str	r3, [r0, #24]
    451c:	0019      	movs	r1, r3
    451e:	2208      	movs	r2, #8
    4520:	305c      	adds	r0, #92	; 0x5c
    4522:	f7ff fd0a 	bl	3f3a <memset>
    4526:	4b05      	ldr	r3, [pc, #20]	; (453c <std.isra.0+0x38>)
    4528:	6224      	str	r4, [r4, #32]
    452a:	6263      	str	r3, [r4, #36]	; 0x24
    452c:	4b04      	ldr	r3, [pc, #16]	; (4540 <std.isra.0+0x3c>)
    452e:	62a3      	str	r3, [r4, #40]	; 0x28
    4530:	4b04      	ldr	r3, [pc, #16]	; (4544 <std.isra.0+0x40>)
    4532:	62e3      	str	r3, [r4, #44]	; 0x2c
    4534:	4b04      	ldr	r3, [pc, #16]	; (4548 <std.isra.0+0x44>)
    4536:	6323      	str	r3, [r4, #48]	; 0x30
    4538:	bd10      	pop	{r4, pc}
    453a:	46c0      	nop			; (mov r8, r8)
    453c:	00004eed 	.word	0x00004eed
    4540:	00004f15 	.word	0x00004f15
    4544:	00004f4d 	.word	0x00004f4d
    4548:	00004f79 	.word	0x00004f79

0000454c <__sfmoreglue>:
    454c:	b570      	push	{r4, r5, r6, lr}
    454e:	2568      	movs	r5, #104	; 0x68
    4550:	1e4b      	subs	r3, r1, #1
    4552:	435d      	muls	r5, r3
    4554:	000e      	movs	r6, r1
    4556:	0029      	movs	r1, r5
    4558:	3174      	adds	r1, #116	; 0x74
    455a:	f000 f955 	bl	4808 <_malloc_r>
    455e:	1e04      	subs	r4, r0, #0
    4560:	d008      	beq.n	4574 <__sfmoreglue+0x28>
    4562:	2100      	movs	r1, #0
    4564:	002a      	movs	r2, r5
    4566:	6001      	str	r1, [r0, #0]
    4568:	6046      	str	r6, [r0, #4]
    456a:	300c      	adds	r0, #12
    456c:	60a0      	str	r0, [r4, #8]
    456e:	3268      	adds	r2, #104	; 0x68
    4570:	f7ff fce3 	bl	3f3a <memset>
    4574:	0020      	movs	r0, r4
    4576:	bd70      	pop	{r4, r5, r6, pc}

00004578 <__sinit>:
    4578:	6983      	ldr	r3, [r0, #24]
    457a:	b513      	push	{r0, r1, r4, lr}
    457c:	0004      	movs	r4, r0
    457e:	2b00      	cmp	r3, #0
    4580:	d128      	bne.n	45d4 <__sinit+0x5c>
    4582:	6483      	str	r3, [r0, #72]	; 0x48
    4584:	64c3      	str	r3, [r0, #76]	; 0x4c
    4586:	6503      	str	r3, [r0, #80]	; 0x50
    4588:	4b13      	ldr	r3, [pc, #76]	; (45d8 <__sinit+0x60>)
    458a:	4a14      	ldr	r2, [pc, #80]	; (45dc <__sinit+0x64>)
    458c:	681b      	ldr	r3, [r3, #0]
    458e:	6282      	str	r2, [r0, #40]	; 0x28
    4590:	9301      	str	r3, [sp, #4]
    4592:	4298      	cmp	r0, r3
    4594:	d101      	bne.n	459a <__sinit+0x22>
    4596:	2301      	movs	r3, #1
    4598:	6183      	str	r3, [r0, #24]
    459a:	0020      	movs	r0, r4
    459c:	f000 f820 	bl	45e0 <__sfp>
    45a0:	6060      	str	r0, [r4, #4]
    45a2:	0020      	movs	r0, r4
    45a4:	f000 f81c 	bl	45e0 <__sfp>
    45a8:	60a0      	str	r0, [r4, #8]
    45aa:	0020      	movs	r0, r4
    45ac:	f000 f818 	bl	45e0 <__sfp>
    45b0:	2200      	movs	r2, #0
    45b2:	60e0      	str	r0, [r4, #12]
    45b4:	2104      	movs	r1, #4
    45b6:	6860      	ldr	r0, [r4, #4]
    45b8:	f7ff ffa4 	bl	4504 <std.isra.0>
    45bc:	2201      	movs	r2, #1
    45be:	2109      	movs	r1, #9
    45c0:	68a0      	ldr	r0, [r4, #8]
    45c2:	f7ff ff9f 	bl	4504 <std.isra.0>
    45c6:	2202      	movs	r2, #2
    45c8:	2112      	movs	r1, #18
    45ca:	68e0      	ldr	r0, [r4, #12]
    45cc:	f7ff ff9a 	bl	4504 <std.isra.0>
    45d0:	2301      	movs	r3, #1
    45d2:	61a3      	str	r3, [r4, #24]
    45d4:	bd13      	pop	{r0, r1, r4, pc}
    45d6:	46c0      	nop			; (mov r8, r8)
    45d8:	000051f8 	.word	0x000051f8
    45dc:	000044f5 	.word	0x000044f5

000045e0 <__sfp>:
    45e0:	b5f8      	push	{r3, r4, r5, r6, r7, lr}
    45e2:	4b1d      	ldr	r3, [pc, #116]	; (4658 <__sfp+0x78>)
    45e4:	0006      	movs	r6, r0
    45e6:	681d      	ldr	r5, [r3, #0]
    45e8:	69ab      	ldr	r3, [r5, #24]
    45ea:	2b00      	cmp	r3, #0
    45ec:	d102      	bne.n	45f4 <__sfp+0x14>
    45ee:	0028      	movs	r0, r5
    45f0:	f7ff ffc2 	bl	4578 <__sinit>
    45f4:	3548      	adds	r5, #72	; 0x48
    45f6:	68ac      	ldr	r4, [r5, #8]
    45f8:	686b      	ldr	r3, [r5, #4]
    45fa:	3b01      	subs	r3, #1
    45fc:	d405      	bmi.n	460a <__sfp+0x2a>
    45fe:	220c      	movs	r2, #12
    4600:	5ea7      	ldrsh	r7, [r4, r2]
    4602:	2f00      	cmp	r7, #0
    4604:	d010      	beq.n	4628 <__sfp+0x48>
    4606:	3468      	adds	r4, #104	; 0x68
    4608:	e7f7      	b.n	45fa <__sfp+0x1a>
    460a:	682b      	ldr	r3, [r5, #0]
    460c:	2b00      	cmp	r3, #0
    460e:	d001      	beq.n	4614 <__sfp+0x34>
    4610:	682d      	ldr	r5, [r5, #0]
    4612:	e7f0      	b.n	45f6 <__sfp+0x16>
    4614:	2104      	movs	r1, #4
    4616:	0030      	movs	r0, r6
    4618:	f7ff ff98 	bl	454c <__sfmoreglue>
    461c:	6028      	str	r0, [r5, #0]
    461e:	2800      	cmp	r0, #0
    4620:	d1f6      	bne.n	4610 <__sfp+0x30>
    4622:	230c      	movs	r3, #12
    4624:	6033      	str	r3, [r6, #0]
    4626:	e016      	b.n	4656 <__sfp+0x76>
    4628:	2301      	movs	r3, #1
    462a:	0020      	movs	r0, r4
    462c:	425b      	negs	r3, r3
    462e:	81e3      	strh	r3, [r4, #14]
    4630:	3302      	adds	r3, #2
    4632:	81a3      	strh	r3, [r4, #12]
    4634:	6667      	str	r7, [r4, #100]	; 0x64
    4636:	6027      	str	r7, [r4, #0]
    4638:	60a7      	str	r7, [r4, #8]
    463a:	6067      	str	r7, [r4, #4]
    463c:	6127      	str	r7, [r4, #16]
    463e:	6167      	str	r7, [r4, #20]
    4640:	61a7      	str	r7, [r4, #24]
    4642:	305c      	adds	r0, #92	; 0x5c
    4644:	2208      	movs	r2, #8
    4646:	0039      	movs	r1, r7
    4648:	f7ff fc77 	bl	3f3a <memset>
    464c:	0020      	movs	r0, r4
    464e:	6367      	str	r7, [r4, #52]	; 0x34
    4650:	63a7      	str	r7, [r4, #56]	; 0x38
    4652:	64a7      	str	r7, [r4, #72]	; 0x48
    4654:	64e7      	str	r7, [r4, #76]	; 0x4c
    4656:	bdf8      	pop	{r3, r4, r5, r6, r7, pc}
    4658:	000051f8 	.word	0x000051f8

0000465c <_fwalk_reent>:
    465c:	b5f7      	push	{r0, r1, r2, r4, r5, r6, r7, lr}
    465e:	0004      	movs	r4, r0
    4660:	0007      	movs	r7, r0
    4662:	2600      	movs	r6, #0
    4664:	9101      	str	r1, [sp, #4]
    4666:	3448      	adds	r4, #72	; 0x48
    4668:	2c00      	cmp	r4, #0
    466a:	d016      	beq.n	469a <_fwalk_reent+0x3e>
    466c:	6863      	ldr	r3, [r4, #4]
    466e:	68a5      	ldr	r5, [r4, #8]
    4670:	9300      	str	r3, [sp, #0]
    4672:	9b00      	ldr	r3, [sp, #0]
    4674:	3b01      	subs	r3, #1
    4676:	9300      	str	r3, [sp, #0]
    4678:	d40d      	bmi.n	4696 <_fwalk_reent+0x3a>
    467a:	89ab      	ldrh	r3, [r5, #12]
    467c:	2b01      	cmp	r3, #1
    467e:	d908      	bls.n	4692 <_fwalk_reent+0x36>
    4680:	220e      	movs	r2, #14
    4682:	5eab      	ldrsh	r3, [r5, r2]
    4684:	3301      	adds	r3, #1
    4686:	d004      	beq.n	4692 <_fwalk_reent+0x36>
    4688:	0029      	movs	r1, r5
    468a:	0038      	movs	r0, r7
    468c:	9b01      	ldr	r3, [sp, #4]
    468e:	4798      	blx	r3
    4690:	4306      	orrs	r6, r0
    4692:	3568      	adds	r5, #104	; 0x68
    4694:	e7ed      	b.n	4672 <_fwalk_reent+0x16>
    4696:	6824      	ldr	r4, [r4, #0]
    4698:	e7e6      	b.n	4668 <_fwalk_reent+0xc>
    469a:	0030      	movs	r0, r6
    469c:	bdfe      	pop	{r1, r2, r3, r4, r5, r6, r7, pc}
	...

000046a0 <__swhatbuf_r>:
    46a0:	b570      	push	{r4, r5, r6, lr}
    46a2:	000e      	movs	r6, r1
    46a4:	001d      	movs	r5, r3
    46a6:	230e      	movs	r3, #14
    46a8:	5ec9      	ldrsh	r1, [r1, r3]
    46aa:	b090      	sub	sp, #64	; 0x40
    46ac:	0014      	movs	r4, r2
    46ae:	2900      	cmp	r1, #0
    46b0:	da06      	bge.n	46c0 <__swhatbuf_r+0x20>
    46b2:	2300      	movs	r3, #0
    46b4:	602b      	str	r3, [r5, #0]
    46b6:	89b3      	ldrh	r3, [r6, #12]
    46b8:	061b      	lsls	r3, r3, #24
    46ba:	d50f      	bpl.n	46dc <__swhatbuf_r+0x3c>
    46bc:	2340      	movs	r3, #64	; 0x40
    46be:	e00f      	b.n	46e0 <__swhatbuf_r+0x40>
    46c0:	aa01      	add	r2, sp, #4
    46c2:	f000 fc85 	bl	4fd0 <_fstat_r>
    46c6:	2800      	cmp	r0, #0
    46c8:	dbf3      	blt.n	46b2 <__swhatbuf_r+0x12>
    46ca:	23f0      	movs	r3, #240	; 0xf0
    46cc:	9a02      	ldr	r2, [sp, #8]
    46ce:	021b      	lsls	r3, r3, #8
    46d0:	4013      	ands	r3, r2
    46d2:	4a05      	ldr	r2, [pc, #20]	; (46e8 <__swhatbuf_r+0x48>)
    46d4:	189b      	adds	r3, r3, r2
    46d6:	425a      	negs	r2, r3
    46d8:	4153      	adcs	r3, r2
    46da:	602b      	str	r3, [r5, #0]
    46dc:	2380      	movs	r3, #128	; 0x80
    46de:	00db      	lsls	r3, r3, #3
    46e0:	2000      	movs	r0, #0
    46e2:	6023      	str	r3, [r4, #0]
    46e4:	b010      	add	sp, #64	; 0x40
    46e6:	bd70      	pop	{r4, r5, r6, pc}
    46e8:	ffffe000 	.word	0xffffe000

000046ec <__smakebuf_r>:
    46ec:	b5f7      	push	{r0, r1, r2, r4, r5, r6, r7, lr}
    46ee:	2602      	movs	r6, #2
    46f0:	898b      	ldrh	r3, [r1, #12]
    46f2:	0005      	movs	r5, r0
    46f4:	000c      	movs	r4, r1
    46f6:	4233      	tst	r3, r6
    46f8:	d110      	bne.n	471c <__smakebuf_r+0x30>
    46fa:	ab01      	add	r3, sp, #4
    46fc:	466a      	mov	r2, sp
    46fe:	f7ff ffcf 	bl	46a0 <__swhatbuf_r>
    4702:	9900      	ldr	r1, [sp, #0]
    4704:	0007      	movs	r7, r0
    4706:	0028      	movs	r0, r5
    4708:	f000 f87e 	bl	4808 <_malloc_r>
    470c:	2800      	cmp	r0, #0
    470e:	d10c      	bne.n	472a <__smakebuf_r+0x3e>
    4710:	220c      	movs	r2, #12
    4712:	5ea3      	ldrsh	r3, [r4, r2]
    4714:	059a      	lsls	r2, r3, #22
    4716:	d423      	bmi.n	4760 <__smakebuf_r+0x74>
    4718:	4333      	orrs	r3, r6
    471a:	81a3      	strh	r3, [r4, #12]
    471c:	0023      	movs	r3, r4
    471e:	3347      	adds	r3, #71	; 0x47
    4720:	6023      	str	r3, [r4, #0]
    4722:	6123      	str	r3, [r4, #16]
    4724:	2301      	movs	r3, #1
    4726:	6163      	str	r3, [r4, #20]
    4728:	e01a      	b.n	4760 <__smakebuf_r+0x74>
    472a:	2280      	movs	r2, #128	; 0x80
    472c:	4b0d      	ldr	r3, [pc, #52]	; (4764 <__smakebuf_r+0x78>)
    472e:	62ab      	str	r3, [r5, #40]	; 0x28
    4730:	89a3      	ldrh	r3, [r4, #12]
    4732:	6020      	str	r0, [r4, #0]
    4734:	4313      	orrs	r3, r2
    4736:	81a3      	strh	r3, [r4, #12]
    4738:	9b00      	ldr	r3, [sp, #0]
    473a:	6120      	str	r0, [r4, #16]
    473c:	6163      	str	r3, [r4, #20]
    473e:	9b01      	ldr	r3, [sp, #4]
    4740:	2b00      	cmp	r3, #0
    4742:	d00a      	beq.n	475a <__smakebuf_r+0x6e>
    4744:	230e      	movs	r3, #14
    4746:	5ee1      	ldrsh	r1, [r4, r3]
    4748:	0028      	movs	r0, r5
    474a:	f000 fc53 	bl	4ff4 <_isatty_r>
    474e:	2800      	cmp	r0, #0
    4750:	d003      	beq.n	475a <__smakebuf_r+0x6e>
    4752:	2201      	movs	r2, #1
    4754:	89a3      	ldrh	r3, [r4, #12]
    4756:	4313      	orrs	r3, r2
    4758:	81a3      	strh	r3, [r4, #12]
    475a:	89a3      	ldrh	r3, [r4, #12]
    475c:	431f      	orrs	r7, r3
    475e:	81a7      	strh	r7, [r4, #12]
    4760:	bdf7      	pop	{r0, r1, r2, r4, r5, r6, r7, pc}
    4762:	46c0      	nop			; (mov r8, r8)
    4764:	000044f5 	.word	0x000044f5

00004768 <malloc>:
    4768:	b510      	push	{r4, lr}
    476a:	4b03      	ldr	r3, [pc, #12]	; (4778 <malloc+0x10>)
    476c:	0001      	movs	r1, r0
    476e:	6818      	ldr	r0, [r3, #0]
    4770:	f000 f84a 	bl	4808 <_malloc_r>
    4774:	bd10      	pop	{r4, pc}
    4776:	46c0      	nop			; (mov r8, r8)
    4778:	20000080 	.word	0x20000080

0000477c <_free_r>:
    477c:	b530      	push	{r4, r5, lr}
    477e:	2900      	cmp	r1, #0
    4780:	d03e      	beq.n	4800 <_free_r+0x84>
    4782:	3904      	subs	r1, #4
    4784:	680b      	ldr	r3, [r1, #0]
    4786:	2b00      	cmp	r3, #0
    4788:	da00      	bge.n	478c <_free_r+0x10>
    478a:	18c9      	adds	r1, r1, r3
    478c:	4a1d      	ldr	r2, [pc, #116]	; (4804 <_free_r+0x88>)
    478e:	6813      	ldr	r3, [r2, #0]
    4790:	0014      	movs	r4, r2
    4792:	2b00      	cmp	r3, #0
    4794:	d102      	bne.n	479c <_free_r+0x20>
    4796:	604b      	str	r3, [r1, #4]
    4798:	6011      	str	r1, [r2, #0]
    479a:	e031      	b.n	4800 <_free_r+0x84>
    479c:	428b      	cmp	r3, r1
    479e:	d90d      	bls.n	47bc <_free_r+0x40>
    47a0:	680a      	ldr	r2, [r1, #0]
    47a2:	1888      	adds	r0, r1, r2
    47a4:	4283      	cmp	r3, r0
    47a6:	d103      	bne.n	47b0 <_free_r+0x34>
    47a8:	6818      	ldr	r0, [r3, #0]
    47aa:	685b      	ldr	r3, [r3, #4]
    47ac:	1882      	adds	r2, r0, r2
    47ae:	600a      	str	r2, [r1, #0]
    47b0:	604b      	str	r3, [r1, #4]
    47b2:	6021      	str	r1, [r4, #0]
    47b4:	e024      	b.n	4800 <_free_r+0x84>
    47b6:	428a      	cmp	r2, r1
    47b8:	d803      	bhi.n	47c2 <_free_r+0x46>
    47ba:	0013      	movs	r3, r2
    47bc:	685a      	ldr	r2, [r3, #4]
    47be:	2a00      	cmp	r2, #0
    47c0:	d1f9      	bne.n	47b6 <_free_r+0x3a>
    47c2:	681d      	ldr	r5, [r3, #0]
    47c4:	195c      	adds	r4, r3, r5
    47c6:	428c      	cmp	r4, r1
    47c8:	d10b      	bne.n	47e2 <_free_r+0x66>
    47ca:	6809      	ldr	r1, [r1, #0]
    47cc:	1869      	adds	r1, r5, r1
    47ce:	1858      	adds	r0, r3, r1
    47d0:	6019      	str	r1, [r3, #0]
    47d2:	4282      	cmp	r2, r0
    47d4:	d114      	bne.n	4800 <_free_r+0x84>
    47d6:	6810      	ldr	r0, [r2, #0]
    47d8:	6852      	ldr	r2, [r2, #4]
    47da:	1841      	adds	r1, r0, r1
    47dc:	6019      	str	r1, [r3, #0]
    47de:	605a      	str	r2, [r3, #4]
    47e0:	e00e      	b.n	4800 <_free_r+0x84>
    47e2:	428c      	cmp	r4, r1
    47e4:	d902      	bls.n	47ec <_free_r+0x70>
    47e6:	230c      	movs	r3, #12
    47e8:	6003      	str	r3, [r0, #0]
    47ea:	e009      	b.n	4800 <_free_r+0x84>
    47ec:	6808      	ldr	r0, [r1, #0]
    47ee:	180c      	adds	r4, r1, r0
    47f0:	42a2      	cmp	r2, r4
    47f2:	d103      	bne.n	47fc <_free_r+0x80>
    47f4:	6814      	ldr	r4, [r2, #0]
    47f6:	6852      	ldr	r2, [r2, #4]
    47f8:	1820      	adds	r0, r4, r0
    47fa:	6008      	str	r0, [r1, #0]
    47fc:	604a      	str	r2, [r1, #4]
    47fe:	6059      	str	r1, [r3, #4]
    4800:	bd30      	pop	{r4, r5, pc}
    4802:	46c0      	nop			; (mov r8, r8)
    4804:	200000e8 	.word	0x200000e8

00004808 <_malloc_r>:
    4808:	2303      	movs	r3, #3
    480a:	b570      	push	{r4, r5, r6, lr}
    480c:	1ccd      	adds	r5, r1, #3
    480e:	439d      	bics	r5, r3
    4810:	3508      	adds	r5, #8
    4812:	0006      	movs	r6, r0
    4814:	2d0c      	cmp	r5, #12
    4816:	d201      	bcs.n	481c <_malloc_r+0x14>
    4818:	250c      	movs	r5, #12
    481a:	e005      	b.n	4828 <_malloc_r+0x20>
    481c:	2d00      	cmp	r5, #0
    481e:	da03      	bge.n	4828 <_malloc_r+0x20>
    4820:	230c      	movs	r3, #12
    4822:	2000      	movs	r0, #0
    4824:	6033      	str	r3, [r6, #0]
    4826:	e040      	b.n	48aa <_malloc_r+0xa2>
    4828:	42a9      	cmp	r1, r5
    482a:	d8f9      	bhi.n	4820 <_malloc_r+0x18>
    482c:	4b1f      	ldr	r3, [pc, #124]	; (48ac <_malloc_r+0xa4>)
    482e:	681c      	ldr	r4, [r3, #0]
    4830:	001a      	movs	r2, r3
    4832:	0021      	movs	r1, r4
    4834:	2900      	cmp	r1, #0
    4836:	d013      	beq.n	4860 <_malloc_r+0x58>
    4838:	680b      	ldr	r3, [r1, #0]
    483a:	1b5b      	subs	r3, r3, r5
    483c:	d40d      	bmi.n	485a <_malloc_r+0x52>
    483e:	2b0b      	cmp	r3, #11
    4840:	d902      	bls.n	4848 <_malloc_r+0x40>
    4842:	600b      	str	r3, [r1, #0]
    4844:	18cc      	adds	r4, r1, r3
    4846:	e01e      	b.n	4886 <_malloc_r+0x7e>
    4848:	428c      	cmp	r4, r1
    484a:	d102      	bne.n	4852 <_malloc_r+0x4a>
    484c:	6863      	ldr	r3, [r4, #4]
    484e:	6013      	str	r3, [r2, #0]
    4850:	e01a      	b.n	4888 <_malloc_r+0x80>
    4852:	684b      	ldr	r3, [r1, #4]
    4854:	6063      	str	r3, [r4, #4]
    4856:	000c      	movs	r4, r1
    4858:	e016      	b.n	4888 <_malloc_r+0x80>
    485a:	000c      	movs	r4, r1
    485c:	6849      	ldr	r1, [r1, #4]
    485e:	e7e9      	b.n	4834 <_malloc_r+0x2c>
    4860:	4c13      	ldr	r4, [pc, #76]	; (48b0 <_malloc_r+0xa8>)
    4862:	6823      	ldr	r3, [r4, #0]
    4864:	2b00      	cmp	r3, #0
    4866:	d103      	bne.n	4870 <_malloc_r+0x68>
    4868:	0030      	movs	r0, r6
    486a:	f000 fb2d 	bl	4ec8 <_sbrk_r>
    486e:	6020      	str	r0, [r4, #0]
    4870:	0029      	movs	r1, r5
    4872:	0030      	movs	r0, r6
    4874:	f000 fb28 	bl	4ec8 <_sbrk_r>
    4878:	1c43      	adds	r3, r0, #1
    487a:	d0d1      	beq.n	4820 <_malloc_r+0x18>
    487c:	2303      	movs	r3, #3
    487e:	1cc4      	adds	r4, r0, #3
    4880:	439c      	bics	r4, r3
    4882:	42a0      	cmp	r0, r4
    4884:	d10a      	bne.n	489c <_malloc_r+0x94>
    4886:	6025      	str	r5, [r4, #0]
    4888:	0020      	movs	r0, r4
    488a:	2207      	movs	r2, #7
    488c:	300b      	adds	r0, #11
    488e:	1d23      	adds	r3, r4, #4
    4890:	4390      	bics	r0, r2
    4892:	1ac3      	subs	r3, r0, r3
    4894:	d009      	beq.n	48aa <_malloc_r+0xa2>
    4896:	425a      	negs	r2, r3
    4898:	50e2      	str	r2, [r4, r3]
    489a:	e006      	b.n	48aa <_malloc_r+0xa2>
    489c:	1a21      	subs	r1, r4, r0
    489e:	0030      	movs	r0, r6
    48a0:	f000 fb12 	bl	4ec8 <_sbrk_r>
    48a4:	1c43      	adds	r3, r0, #1
    48a6:	d1ee      	bne.n	4886 <_malloc_r+0x7e>
    48a8:	e7ba      	b.n	4820 <_malloc_r+0x18>
    48aa:	bd70      	pop	{r4, r5, r6, pc}
    48ac:	200000e8 	.word	0x200000e8
    48b0:	200000e4 	.word	0x200000e4

000048b4 <__sfputc_r>:
    48b4:	6893      	ldr	r3, [r2, #8]
    48b6:	b510      	push	{r4, lr}
    48b8:	3b01      	subs	r3, #1
    48ba:	6093      	str	r3, [r2, #8]
    48bc:	2b00      	cmp	r3, #0
    48be:	da05      	bge.n	48cc <__sfputc_r+0x18>
    48c0:	6994      	ldr	r4, [r2, #24]
    48c2:	42a3      	cmp	r3, r4
    48c4:	db08      	blt.n	48d8 <__sfputc_r+0x24>
    48c6:	b2cb      	uxtb	r3, r1
    48c8:	2b0a      	cmp	r3, #10
    48ca:	d005      	beq.n	48d8 <__sfputc_r+0x24>
    48cc:	6813      	ldr	r3, [r2, #0]
    48ce:	1c58      	adds	r0, r3, #1
    48d0:	6010      	str	r0, [r2, #0]
    48d2:	7019      	strb	r1, [r3, #0]
    48d4:	b2c8      	uxtb	r0, r1
    48d6:	e001      	b.n	48dc <__sfputc_r+0x28>
    48d8:	f7ff fc8c 	bl	41f4 <__swbuf_r>
    48dc:	bd10      	pop	{r4, pc}

000048de <__sfputs_r>:
    48de:	b5f8      	push	{r3, r4, r5, r6, r7, lr}
    48e0:	0006      	movs	r6, r0
    48e2:	000f      	movs	r7, r1
    48e4:	0014      	movs	r4, r2
    48e6:	18d5      	adds	r5, r2, r3
    48e8:	42ac      	cmp	r4, r5
    48ea:	d008      	beq.n	48fe <__sfputs_r+0x20>
    48ec:	7821      	ldrb	r1, [r4, #0]
    48ee:	003a      	movs	r2, r7
    48f0:	0030      	movs	r0, r6
    48f2:	f7ff ffdf 	bl	48b4 <__sfputc_r>
    48f6:	3401      	adds	r4, #1
    48f8:	1c43      	adds	r3, r0, #1
    48fa:	d1f5      	bne.n	48e8 <__sfputs_r+0xa>
    48fc:	e000      	b.n	4900 <__sfputs_r+0x22>
    48fe:	2000      	movs	r0, #0
    4900:	bdf8      	pop	{r3, r4, r5, r6, r7, pc}
	...

00004904 <_vfiprintf_r>:
    4904:	b5f0      	push	{r4, r5, r6, r7, lr}
    4906:	b09f      	sub	sp, #124	; 0x7c
    4908:	0006      	movs	r6, r0
    490a:	000f      	movs	r7, r1
    490c:	9202      	str	r2, [sp, #8]
    490e:	9305      	str	r3, [sp, #20]
    4910:	2800      	cmp	r0, #0
    4912:	d004      	beq.n	491e <_vfiprintf_r+0x1a>
    4914:	6983      	ldr	r3, [r0, #24]
    4916:	2b00      	cmp	r3, #0
    4918:	d101      	bne.n	491e <_vfiprintf_r+0x1a>
    491a:	f7ff fe2d 	bl	4578 <__sinit>
    491e:	4b7f      	ldr	r3, [pc, #508]	; (4b1c <_vfiprintf_r+0x218>)
    4920:	429f      	cmp	r7, r3
    4922:	d101      	bne.n	4928 <_vfiprintf_r+0x24>
    4924:	6877      	ldr	r7, [r6, #4]
    4926:	e008      	b.n	493a <_vfiprintf_r+0x36>
    4928:	4b7d      	ldr	r3, [pc, #500]	; (4b20 <_vfiprintf_r+0x21c>)
    492a:	429f      	cmp	r7, r3
    492c:	d101      	bne.n	4932 <_vfiprintf_r+0x2e>
    492e:	68b7      	ldr	r7, [r6, #8]
    4930:	e003      	b.n	493a <_vfiprintf_r+0x36>
    4932:	4b7c      	ldr	r3, [pc, #496]	; (4b24 <_vfiprintf_r+0x220>)
    4934:	429f      	cmp	r7, r3
    4936:	d100      	bne.n	493a <_vfiprintf_r+0x36>
    4938:	68f7      	ldr	r7, [r6, #12]
    493a:	89bb      	ldrh	r3, [r7, #12]
    493c:	071b      	lsls	r3, r3, #28
    493e:	d50a      	bpl.n	4956 <_vfiprintf_r+0x52>
    4940:	693b      	ldr	r3, [r7, #16]
    4942:	2b00      	cmp	r3, #0
    4944:	d007      	beq.n	4956 <_vfiprintf_r+0x52>
    4946:	2300      	movs	r3, #0
    4948:	ad06      	add	r5, sp, #24
    494a:	616b      	str	r3, [r5, #20]
    494c:	3320      	adds	r3, #32
    494e:	766b      	strb	r3, [r5, #25]
    4950:	3310      	adds	r3, #16
    4952:	76ab      	strb	r3, [r5, #26]
    4954:	e03d      	b.n	49d2 <_vfiprintf_r+0xce>
    4956:	0039      	movs	r1, r7
    4958:	0030      	movs	r0, r6
    495a:	f7ff fca3 	bl	42a4 <__swsetup_r>
    495e:	2800      	cmp	r0, #0
    4960:	d0f1      	beq.n	4946 <_vfiprintf_r+0x42>
    4962:	2001      	movs	r0, #1
    4964:	4240      	negs	r0, r0
    4966:	e0d6      	b.n	4b16 <_vfiprintf_r+0x212>
    4968:	9a05      	ldr	r2, [sp, #20]
    496a:	1d11      	adds	r1, r2, #4
    496c:	6812      	ldr	r2, [r2, #0]
    496e:	9105      	str	r1, [sp, #20]
    4970:	2a00      	cmp	r2, #0
    4972:	da00      	bge.n	4976 <_vfiprintf_r+0x72>
    4974:	e07f      	b.n	4a76 <_vfiprintf_r+0x172>
    4976:	9209      	str	r2, [sp, #36]	; 0x24
    4978:	3401      	adds	r4, #1
    497a:	7823      	ldrb	r3, [r4, #0]
    497c:	2b2e      	cmp	r3, #46	; 0x2e
    497e:	d100      	bne.n	4982 <_vfiprintf_r+0x7e>
    4980:	e08d      	b.n	4a9e <_vfiprintf_r+0x19a>
    4982:	7821      	ldrb	r1, [r4, #0]
    4984:	2203      	movs	r2, #3
    4986:	4868      	ldr	r0, [pc, #416]	; (4b28 <_vfiprintf_r+0x224>)
    4988:	f000 fb5a 	bl	5040 <memchr>
    498c:	2800      	cmp	r0, #0
    498e:	d007      	beq.n	49a0 <_vfiprintf_r+0x9c>
    4990:	4b65      	ldr	r3, [pc, #404]	; (4b28 <_vfiprintf_r+0x224>)
    4992:	682a      	ldr	r2, [r5, #0]
    4994:	1ac0      	subs	r0, r0, r3
    4996:	2340      	movs	r3, #64	; 0x40
    4998:	4083      	lsls	r3, r0
    499a:	4313      	orrs	r3, r2
    499c:	602b      	str	r3, [r5, #0]
    499e:	3401      	adds	r4, #1
    49a0:	7821      	ldrb	r1, [r4, #0]
    49a2:	1c63      	adds	r3, r4, #1
    49a4:	2206      	movs	r2, #6
    49a6:	4861      	ldr	r0, [pc, #388]	; (4b2c <_vfiprintf_r+0x228>)
    49a8:	9302      	str	r3, [sp, #8]
    49aa:	7629      	strb	r1, [r5, #24]
    49ac:	f000 fb48 	bl	5040 <memchr>
    49b0:	2800      	cmp	r0, #0
    49b2:	d100      	bne.n	49b6 <_vfiprintf_r+0xb2>
    49b4:	e09d      	b.n	4af2 <_vfiprintf_r+0x1ee>
    49b6:	4b5e      	ldr	r3, [pc, #376]	; (4b30 <_vfiprintf_r+0x22c>)
    49b8:	2b00      	cmp	r3, #0
    49ba:	d000      	beq.n	49be <_vfiprintf_r+0xba>
    49bc:	e090      	b.n	4ae0 <_vfiprintf_r+0x1dc>
    49be:	2207      	movs	r2, #7
    49c0:	9b05      	ldr	r3, [sp, #20]
    49c2:	3307      	adds	r3, #7
    49c4:	4393      	bics	r3, r2
    49c6:	3308      	adds	r3, #8
    49c8:	9305      	str	r3, [sp, #20]
    49ca:	696b      	ldr	r3, [r5, #20]
    49cc:	9a03      	ldr	r2, [sp, #12]
    49ce:	189b      	adds	r3, r3, r2
    49d0:	616b      	str	r3, [r5, #20]
    49d2:	9c02      	ldr	r4, [sp, #8]
    49d4:	7823      	ldrb	r3, [r4, #0]
    49d6:	2b00      	cmp	r3, #0
    49d8:	d104      	bne.n	49e4 <_vfiprintf_r+0xe0>
    49da:	9b02      	ldr	r3, [sp, #8]
    49dc:	1ae3      	subs	r3, r4, r3
    49de:	9304      	str	r3, [sp, #16]
    49e0:	d012      	beq.n	4a08 <_vfiprintf_r+0x104>
    49e2:	e003      	b.n	49ec <_vfiprintf_r+0xe8>
    49e4:	2b25      	cmp	r3, #37	; 0x25
    49e6:	d0f8      	beq.n	49da <_vfiprintf_r+0xd6>
    49e8:	3401      	adds	r4, #1
    49ea:	e7f3      	b.n	49d4 <_vfiprintf_r+0xd0>
    49ec:	9b04      	ldr	r3, [sp, #16]
    49ee:	9a02      	ldr	r2, [sp, #8]
    49f0:	0039      	movs	r1, r7
    49f2:	0030      	movs	r0, r6
    49f4:	f7ff ff73 	bl	48de <__sfputs_r>
    49f8:	1c43      	adds	r3, r0, #1
    49fa:	d100      	bne.n	49fe <_vfiprintf_r+0xfa>
    49fc:	e086      	b.n	4b0c <_vfiprintf_r+0x208>
    49fe:	696a      	ldr	r2, [r5, #20]
    4a00:	9b04      	ldr	r3, [sp, #16]
    4a02:	4694      	mov	ip, r2
    4a04:	4463      	add	r3, ip
    4a06:	616b      	str	r3, [r5, #20]
    4a08:	7823      	ldrb	r3, [r4, #0]
    4a0a:	2b00      	cmp	r3, #0
    4a0c:	d07e      	beq.n	4b0c <_vfiprintf_r+0x208>
    4a0e:	2201      	movs	r2, #1
    4a10:	2300      	movs	r3, #0
    4a12:	4252      	negs	r2, r2
    4a14:	606a      	str	r2, [r5, #4]
    4a16:	a902      	add	r1, sp, #8
    4a18:	3254      	adds	r2, #84	; 0x54
    4a1a:	1852      	adds	r2, r2, r1
    4a1c:	3401      	adds	r4, #1
    4a1e:	602b      	str	r3, [r5, #0]
    4a20:	60eb      	str	r3, [r5, #12]
    4a22:	60ab      	str	r3, [r5, #8]
    4a24:	7013      	strb	r3, [r2, #0]
    4a26:	65ab      	str	r3, [r5, #88]	; 0x58
    4a28:	7821      	ldrb	r1, [r4, #0]
    4a2a:	2205      	movs	r2, #5
    4a2c:	4841      	ldr	r0, [pc, #260]	; (4b34 <_vfiprintf_r+0x230>)
    4a2e:	f000 fb07 	bl	5040 <memchr>
    4a32:	2800      	cmp	r0, #0
    4a34:	d008      	beq.n	4a48 <_vfiprintf_r+0x144>
    4a36:	4b3f      	ldr	r3, [pc, #252]	; (4b34 <_vfiprintf_r+0x230>)
    4a38:	682a      	ldr	r2, [r5, #0]
    4a3a:	1ac0      	subs	r0, r0, r3
    4a3c:	2301      	movs	r3, #1
    4a3e:	4083      	lsls	r3, r0
    4a40:	4313      	orrs	r3, r2
    4a42:	602b      	str	r3, [r5, #0]
    4a44:	3401      	adds	r4, #1
    4a46:	e7ef      	b.n	4a28 <_vfiprintf_r+0x124>
    4a48:	682b      	ldr	r3, [r5, #0]
    4a4a:	06da      	lsls	r2, r3, #27
    4a4c:	d504      	bpl.n	4a58 <_vfiprintf_r+0x154>
    4a4e:	2253      	movs	r2, #83	; 0x53
    4a50:	2120      	movs	r1, #32
    4a52:	a802      	add	r0, sp, #8
    4a54:	1812      	adds	r2, r2, r0
    4a56:	7011      	strb	r1, [r2, #0]
    4a58:	071a      	lsls	r2, r3, #28
    4a5a:	d504      	bpl.n	4a66 <_vfiprintf_r+0x162>
    4a5c:	2253      	movs	r2, #83	; 0x53
    4a5e:	212b      	movs	r1, #43	; 0x2b
    4a60:	a802      	add	r0, sp, #8
    4a62:	1812      	adds	r2, r2, r0
    4a64:	7011      	strb	r1, [r2, #0]
    4a66:	7822      	ldrb	r2, [r4, #0]
    4a68:	2a2a      	cmp	r2, #42	; 0x2a
    4a6a:	d100      	bne.n	4a6e <_vfiprintf_r+0x16a>
    4a6c:	e77c      	b.n	4968 <_vfiprintf_r+0x64>
    4a6e:	9b09      	ldr	r3, [sp, #36]	; 0x24
    4a70:	2000      	movs	r0, #0
    4a72:	210a      	movs	r1, #10
    4a74:	e005      	b.n	4a82 <_vfiprintf_r+0x17e>
    4a76:	4252      	negs	r2, r2
    4a78:	60ea      	str	r2, [r5, #12]
    4a7a:	2202      	movs	r2, #2
    4a7c:	4313      	orrs	r3, r2
    4a7e:	602b      	str	r3, [r5, #0]
    4a80:	e77a      	b.n	4978 <_vfiprintf_r+0x74>
    4a82:	7822      	ldrb	r2, [r4, #0]
    4a84:	3a30      	subs	r2, #48	; 0x30
    4a86:	2a09      	cmp	r2, #9
    4a88:	d804      	bhi.n	4a94 <_vfiprintf_r+0x190>
    4a8a:	434b      	muls	r3, r1
    4a8c:	3401      	adds	r4, #1
    4a8e:	189b      	adds	r3, r3, r2
    4a90:	2001      	movs	r0, #1
    4a92:	e7f6      	b.n	4a82 <_vfiprintf_r+0x17e>
    4a94:	2800      	cmp	r0, #0
    4a96:	d100      	bne.n	4a9a <_vfiprintf_r+0x196>
    4a98:	e76f      	b.n	497a <_vfiprintf_r+0x76>
    4a9a:	9309      	str	r3, [sp, #36]	; 0x24
    4a9c:	e76d      	b.n	497a <_vfiprintf_r+0x76>
    4a9e:	7863      	ldrb	r3, [r4, #1]
    4aa0:	2b2a      	cmp	r3, #42	; 0x2a
    4aa2:	d10a      	bne.n	4aba <_vfiprintf_r+0x1b6>
    4aa4:	9b05      	ldr	r3, [sp, #20]
    4aa6:	3402      	adds	r4, #2
    4aa8:	1d1a      	adds	r2, r3, #4
    4aaa:	681b      	ldr	r3, [r3, #0]
    4aac:	9205      	str	r2, [sp, #20]
    4aae:	2b00      	cmp	r3, #0
    4ab0:	da01      	bge.n	4ab6 <_vfiprintf_r+0x1b2>
    4ab2:	2301      	movs	r3, #1
    4ab4:	425b      	negs	r3, r3
    4ab6:	9307      	str	r3, [sp, #28]
    4ab8:	e763      	b.n	4982 <_vfiprintf_r+0x7e>
    4aba:	2300      	movs	r3, #0
    4abc:	200a      	movs	r0, #10
    4abe:	001a      	movs	r2, r3
    4ac0:	3401      	adds	r4, #1
    4ac2:	606b      	str	r3, [r5, #4]
    4ac4:	7821      	ldrb	r1, [r4, #0]
    4ac6:	3930      	subs	r1, #48	; 0x30
    4ac8:	2909      	cmp	r1, #9
    4aca:	d804      	bhi.n	4ad6 <_vfiprintf_r+0x1d2>
    4acc:	4342      	muls	r2, r0
    4ace:	3401      	adds	r4, #1
    4ad0:	1852      	adds	r2, r2, r1
    4ad2:	2301      	movs	r3, #1
    4ad4:	e7f6      	b.n	4ac4 <_vfiprintf_r+0x1c0>
    4ad6:	2b00      	cmp	r3, #0
    4ad8:	d100      	bne.n	4adc <_vfiprintf_r+0x1d8>
    4ada:	e752      	b.n	4982 <_vfiprintf_r+0x7e>
    4adc:	9207      	str	r2, [sp, #28]
    4ade:	e750      	b.n	4982 <_vfiprintf_r+0x7e>
    4ae0:	ab05      	add	r3, sp, #20
    4ae2:	9300      	str	r3, [sp, #0]
    4ae4:	003a      	movs	r2, r7
    4ae6:	4b14      	ldr	r3, [pc, #80]	; (4b38 <_vfiprintf_r+0x234>)
    4ae8:	0029      	movs	r1, r5
    4aea:	0030      	movs	r0, r6
    4aec:	e000      	b.n	4af0 <_vfiprintf_r+0x1ec>
    4aee:	bf00      	nop
    4af0:	e007      	b.n	4b02 <_vfiprintf_r+0x1fe>
    4af2:	ab05      	add	r3, sp, #20
    4af4:	9300      	str	r3, [sp, #0]
    4af6:	003a      	movs	r2, r7
    4af8:	4b0f      	ldr	r3, [pc, #60]	; (4b38 <_vfiprintf_r+0x234>)
    4afa:	0029      	movs	r1, r5
    4afc:	0030      	movs	r0, r6
    4afe:	f000 f88b 	bl	4c18 <_printf_i>
    4b02:	9003      	str	r0, [sp, #12]
    4b04:	9b03      	ldr	r3, [sp, #12]
    4b06:	3301      	adds	r3, #1
    4b08:	d000      	beq.n	4b0c <_vfiprintf_r+0x208>
    4b0a:	e75e      	b.n	49ca <_vfiprintf_r+0xc6>
    4b0c:	89bb      	ldrh	r3, [r7, #12]
    4b0e:	065b      	lsls	r3, r3, #25
    4b10:	d500      	bpl.n	4b14 <_vfiprintf_r+0x210>
    4b12:	e726      	b.n	4962 <_vfiprintf_r+0x5e>
    4b14:	980b      	ldr	r0, [sp, #44]	; 0x2c
    4b16:	b01f      	add	sp, #124	; 0x7c
    4b18:	bdf0      	pop	{r4, r5, r6, r7, pc}
    4b1a:	46c0      	nop			; (mov r8, r8)
    4b1c:	000051fc 	.word	0x000051fc
    4b20:	0000521c 	.word	0x0000521c
    4b24:	0000523c 	.word	0x0000523c
    4b28:	00005262 	.word	0x00005262
    4b2c:	00005266 	.word	0x00005266
    4b30:	00000000 	.word	0x00000000
    4b34:	0000525c 	.word	0x0000525c
    4b38:	000048df 	.word	0x000048df

00004b3c <_printf_common>:
    4b3c:	b5f7      	push	{r0, r1, r2, r4, r5, r6, r7, lr}
    4b3e:	0017      	movs	r7, r2
    4b40:	9301      	str	r3, [sp, #4]
    4b42:	688a      	ldr	r2, [r1, #8]
    4b44:	690b      	ldr	r3, [r1, #16]
    4b46:	9000      	str	r0, [sp, #0]
    4b48:	000c      	movs	r4, r1
    4b4a:	4293      	cmp	r3, r2
    4b4c:	da00      	bge.n	4b50 <_printf_common+0x14>
    4b4e:	0013      	movs	r3, r2
    4b50:	0022      	movs	r2, r4
    4b52:	603b      	str	r3, [r7, #0]
    4b54:	3243      	adds	r2, #67	; 0x43
    4b56:	7812      	ldrb	r2, [r2, #0]
    4b58:	2a00      	cmp	r2, #0
    4b5a:	d001      	beq.n	4b60 <_printf_common+0x24>
    4b5c:	3301      	adds	r3, #1
    4b5e:	603b      	str	r3, [r7, #0]
    4b60:	6823      	ldr	r3, [r4, #0]
    4b62:	069b      	lsls	r3, r3, #26
    4b64:	d502      	bpl.n	4b6c <_printf_common+0x30>
    4b66:	683b      	ldr	r3, [r7, #0]
    4b68:	3302      	adds	r3, #2
    4b6a:	603b      	str	r3, [r7, #0]
    4b6c:	2506      	movs	r5, #6
    4b6e:	6823      	ldr	r3, [r4, #0]
    4b70:	401d      	ands	r5, r3
    4b72:	d01e      	beq.n	4bb2 <_printf_common+0x76>
    4b74:	0023      	movs	r3, r4
    4b76:	3343      	adds	r3, #67	; 0x43
    4b78:	781b      	ldrb	r3, [r3, #0]
    4b7a:	1e5a      	subs	r2, r3, #1
    4b7c:	4193      	sbcs	r3, r2
    4b7e:	6822      	ldr	r2, [r4, #0]
    4b80:	0692      	lsls	r2, r2, #26
    4b82:	d51c      	bpl.n	4bbe <_printf_common+0x82>
    4b84:	2030      	movs	r0, #48	; 0x30
    4b86:	18e1      	adds	r1, r4, r3
    4b88:	3143      	adds	r1, #67	; 0x43
    4b8a:	7008      	strb	r0, [r1, #0]
    4b8c:	0021      	movs	r1, r4
    4b8e:	1c5a      	adds	r2, r3, #1
    4b90:	3145      	adds	r1, #69	; 0x45
    4b92:	7809      	ldrb	r1, [r1, #0]
    4b94:	18a2      	adds	r2, r4, r2
    4b96:	3243      	adds	r2, #67	; 0x43
    4b98:	3302      	adds	r3, #2
    4b9a:	7011      	strb	r1, [r2, #0]
    4b9c:	e00f      	b.n	4bbe <_printf_common+0x82>
    4b9e:	0022      	movs	r2, r4
    4ba0:	2301      	movs	r3, #1
    4ba2:	3219      	adds	r2, #25
    4ba4:	9901      	ldr	r1, [sp, #4]
    4ba6:	9800      	ldr	r0, [sp, #0]
    4ba8:	9e08      	ldr	r6, [sp, #32]
    4baa:	47b0      	blx	r6
    4bac:	1c43      	adds	r3, r0, #1
    4bae:	d00e      	beq.n	4bce <_printf_common+0x92>
    4bb0:	3501      	adds	r5, #1
    4bb2:	68e3      	ldr	r3, [r4, #12]
    4bb4:	683a      	ldr	r2, [r7, #0]
    4bb6:	1a9b      	subs	r3, r3, r2
    4bb8:	429d      	cmp	r5, r3
    4bba:	dbf0      	blt.n	4b9e <_printf_common+0x62>
    4bbc:	e7da      	b.n	4b74 <_printf_common+0x38>
    4bbe:	0022      	movs	r2, r4
    4bc0:	9901      	ldr	r1, [sp, #4]
    4bc2:	3243      	adds	r2, #67	; 0x43
    4bc4:	9800      	ldr	r0, [sp, #0]
    4bc6:	9d08      	ldr	r5, [sp, #32]
    4bc8:	47a8      	blx	r5
    4bca:	1c43      	adds	r3, r0, #1
    4bcc:	d102      	bne.n	4bd4 <_printf_common+0x98>
    4bce:	2001      	movs	r0, #1
    4bd0:	4240      	negs	r0, r0
    4bd2:	e020      	b.n	4c16 <_printf_common+0xda>
    4bd4:	2306      	movs	r3, #6
    4bd6:	6820      	ldr	r0, [r4, #0]
    4bd8:	68e1      	ldr	r1, [r4, #12]
    4bda:	683a      	ldr	r2, [r7, #0]
    4bdc:	4003      	ands	r3, r0
    4bde:	2500      	movs	r5, #0
    4be0:	2b04      	cmp	r3, #4
    4be2:	d103      	bne.n	4bec <_printf_common+0xb0>
    4be4:	1a8d      	subs	r5, r1, r2
    4be6:	43eb      	mvns	r3, r5
    4be8:	17db      	asrs	r3, r3, #31
    4bea:	401d      	ands	r5, r3
    4bec:	68a3      	ldr	r3, [r4, #8]
    4bee:	6922      	ldr	r2, [r4, #16]
    4bf0:	4293      	cmp	r3, r2
    4bf2:	dd01      	ble.n	4bf8 <_printf_common+0xbc>
    4bf4:	1a9b      	subs	r3, r3, r2
    4bf6:	18ed      	adds	r5, r5, r3
    4bf8:	2700      	movs	r7, #0
    4bfa:	42bd      	cmp	r5, r7
    4bfc:	d00a      	beq.n	4c14 <_printf_common+0xd8>
    4bfe:	0022      	movs	r2, r4
    4c00:	2301      	movs	r3, #1
    4c02:	321a      	adds	r2, #26
    4c04:	9901      	ldr	r1, [sp, #4]
    4c06:	9800      	ldr	r0, [sp, #0]
    4c08:	9e08      	ldr	r6, [sp, #32]
    4c0a:	47b0      	blx	r6
    4c0c:	1c43      	adds	r3, r0, #1
    4c0e:	d0de      	beq.n	4bce <_printf_common+0x92>
    4c10:	3701      	adds	r7, #1
    4c12:	e7f2      	b.n	4bfa <_printf_common+0xbe>
    4c14:	2000      	movs	r0, #0
    4c16:	bdfe      	pop	{r1, r2, r3, r4, r5, r6, r7, pc}

00004c18 <_printf_i>:
    4c18:	b5f0      	push	{r4, r5, r6, r7, lr}
    4c1a:	b08b      	sub	sp, #44	; 0x2c
    4c1c:	9206      	str	r2, [sp, #24]
    4c1e:	000a      	movs	r2, r1
    4c20:	3243      	adds	r2, #67	; 0x43
    4c22:	9307      	str	r3, [sp, #28]
    4c24:	9005      	str	r0, [sp, #20]
    4c26:	9204      	str	r2, [sp, #16]
    4c28:	7e0a      	ldrb	r2, [r1, #24]
    4c2a:	000c      	movs	r4, r1
    4c2c:	9b10      	ldr	r3, [sp, #64]	; 0x40
    4c2e:	2a6e      	cmp	r2, #110	; 0x6e
    4c30:	d100      	bne.n	4c34 <_printf_i+0x1c>
    4c32:	e0ab      	b.n	4d8c <_printf_i+0x174>
    4c34:	d811      	bhi.n	4c5a <_printf_i+0x42>
    4c36:	2a63      	cmp	r2, #99	; 0x63
    4c38:	d022      	beq.n	4c80 <_printf_i+0x68>
    4c3a:	d809      	bhi.n	4c50 <_printf_i+0x38>
    4c3c:	2a00      	cmp	r2, #0
    4c3e:	d100      	bne.n	4c42 <_printf_i+0x2a>
    4c40:	e0b5      	b.n	4dae <_printf_i+0x196>
    4c42:	2a58      	cmp	r2, #88	; 0x58
    4c44:	d000      	beq.n	4c48 <_printf_i+0x30>
    4c46:	e0c5      	b.n	4dd4 <_printf_i+0x1bc>
    4c48:	3145      	adds	r1, #69	; 0x45
    4c4a:	700a      	strb	r2, [r1, #0]
    4c4c:	4a81      	ldr	r2, [pc, #516]	; (4e54 <_printf_i+0x23c>)
    4c4e:	e04f      	b.n	4cf0 <_printf_i+0xd8>
    4c50:	2a64      	cmp	r2, #100	; 0x64
    4c52:	d01d      	beq.n	4c90 <_printf_i+0x78>
    4c54:	2a69      	cmp	r2, #105	; 0x69
    4c56:	d01b      	beq.n	4c90 <_printf_i+0x78>
    4c58:	e0bc      	b.n	4dd4 <_printf_i+0x1bc>
    4c5a:	2a73      	cmp	r2, #115	; 0x73
    4c5c:	d100      	bne.n	4c60 <_printf_i+0x48>
    4c5e:	e0aa      	b.n	4db6 <_printf_i+0x19e>
    4c60:	d809      	bhi.n	4c76 <_printf_i+0x5e>
    4c62:	2a6f      	cmp	r2, #111	; 0x6f
    4c64:	d029      	beq.n	4cba <_printf_i+0xa2>
    4c66:	2a70      	cmp	r2, #112	; 0x70
    4c68:	d000      	beq.n	4c6c <_printf_i+0x54>
    4c6a:	e0b3      	b.n	4dd4 <_printf_i+0x1bc>
    4c6c:	2220      	movs	r2, #32
    4c6e:	6809      	ldr	r1, [r1, #0]
    4c70:	430a      	orrs	r2, r1
    4c72:	6022      	str	r2, [r4, #0]
    4c74:	e037      	b.n	4ce6 <_printf_i+0xce>
    4c76:	2a75      	cmp	r2, #117	; 0x75
    4c78:	d01f      	beq.n	4cba <_printf_i+0xa2>
    4c7a:	2a78      	cmp	r2, #120	; 0x78
    4c7c:	d033      	beq.n	4ce6 <_printf_i+0xce>
    4c7e:	e0a9      	b.n	4dd4 <_printf_i+0x1bc>
    4c80:	000e      	movs	r6, r1
    4c82:	681a      	ldr	r2, [r3, #0]
    4c84:	3642      	adds	r6, #66	; 0x42
    4c86:	1d11      	adds	r1, r2, #4
    4c88:	6019      	str	r1, [r3, #0]
    4c8a:	6813      	ldr	r3, [r2, #0]
    4c8c:	7033      	strb	r3, [r6, #0]
    4c8e:	e0a4      	b.n	4dda <_printf_i+0x1c2>
    4c90:	6821      	ldr	r1, [r4, #0]
    4c92:	681a      	ldr	r2, [r3, #0]
    4c94:	0608      	lsls	r0, r1, #24
    4c96:	d406      	bmi.n	4ca6 <_printf_i+0x8e>
    4c98:	0649      	lsls	r1, r1, #25
    4c9a:	d504      	bpl.n	4ca6 <_printf_i+0x8e>
    4c9c:	1d11      	adds	r1, r2, #4
    4c9e:	6019      	str	r1, [r3, #0]
    4ca0:	2300      	movs	r3, #0
    4ca2:	5ed5      	ldrsh	r5, [r2, r3]
    4ca4:	e002      	b.n	4cac <_printf_i+0x94>
    4ca6:	1d11      	adds	r1, r2, #4
    4ca8:	6019      	str	r1, [r3, #0]
    4caa:	6815      	ldr	r5, [r2, #0]
    4cac:	2d00      	cmp	r5, #0
    4cae:	da3b      	bge.n	4d28 <_printf_i+0x110>
    4cb0:	232d      	movs	r3, #45	; 0x2d
    4cb2:	9a04      	ldr	r2, [sp, #16]
    4cb4:	426d      	negs	r5, r5
    4cb6:	7013      	strb	r3, [r2, #0]
    4cb8:	e036      	b.n	4d28 <_printf_i+0x110>
    4cba:	6821      	ldr	r1, [r4, #0]
    4cbc:	681a      	ldr	r2, [r3, #0]
    4cbe:	0608      	lsls	r0, r1, #24
    4cc0:	d406      	bmi.n	4cd0 <_printf_i+0xb8>
    4cc2:	0649      	lsls	r1, r1, #25
    4cc4:	d504      	bpl.n	4cd0 <_printf_i+0xb8>
    4cc6:	6815      	ldr	r5, [r2, #0]
    4cc8:	1d11      	adds	r1, r2, #4
    4cca:	6019      	str	r1, [r3, #0]
    4ccc:	b2ad      	uxth	r5, r5
    4cce:	e002      	b.n	4cd6 <_printf_i+0xbe>
    4cd0:	1d11      	adds	r1, r2, #4
    4cd2:	6019      	str	r1, [r3, #0]
    4cd4:	6815      	ldr	r5, [r2, #0]
    4cd6:	4b5f      	ldr	r3, [pc, #380]	; (4e54 <_printf_i+0x23c>)
    4cd8:	7e22      	ldrb	r2, [r4, #24]
    4cda:	9303      	str	r3, [sp, #12]
    4cdc:	2708      	movs	r7, #8
    4cde:	2a6f      	cmp	r2, #111	; 0x6f
    4ce0:	d01d      	beq.n	4d1e <_printf_i+0x106>
    4ce2:	270a      	movs	r7, #10
    4ce4:	e01b      	b.n	4d1e <_printf_i+0x106>
    4ce6:	0022      	movs	r2, r4
    4ce8:	2178      	movs	r1, #120	; 0x78
    4cea:	3245      	adds	r2, #69	; 0x45
    4cec:	7011      	strb	r1, [r2, #0]
    4cee:	4a5a      	ldr	r2, [pc, #360]	; (4e58 <_printf_i+0x240>)
    4cf0:	6819      	ldr	r1, [r3, #0]
    4cf2:	9203      	str	r2, [sp, #12]
    4cf4:	1d08      	adds	r0, r1, #4
    4cf6:	6822      	ldr	r2, [r4, #0]
    4cf8:	6018      	str	r0, [r3, #0]
    4cfa:	680d      	ldr	r5, [r1, #0]
    4cfc:	0610      	lsls	r0, r2, #24
    4cfe:	d402      	bmi.n	4d06 <_printf_i+0xee>
    4d00:	0650      	lsls	r0, r2, #25
    4d02:	d500      	bpl.n	4d06 <_printf_i+0xee>
    4d04:	b2ad      	uxth	r5, r5
    4d06:	07d3      	lsls	r3, r2, #31
    4d08:	d502      	bpl.n	4d10 <_printf_i+0xf8>
    4d0a:	2320      	movs	r3, #32
    4d0c:	431a      	orrs	r2, r3
    4d0e:	6022      	str	r2, [r4, #0]
    4d10:	2710      	movs	r7, #16
    4d12:	2d00      	cmp	r5, #0
    4d14:	d103      	bne.n	4d1e <_printf_i+0x106>
    4d16:	2320      	movs	r3, #32
    4d18:	6822      	ldr	r2, [r4, #0]
    4d1a:	439a      	bics	r2, r3
    4d1c:	6022      	str	r2, [r4, #0]
    4d1e:	0023      	movs	r3, r4
    4d20:	2200      	movs	r2, #0
    4d22:	3343      	adds	r3, #67	; 0x43
    4d24:	701a      	strb	r2, [r3, #0]
    4d26:	e002      	b.n	4d2e <_printf_i+0x116>
    4d28:	270a      	movs	r7, #10
    4d2a:	4b4a      	ldr	r3, [pc, #296]	; (4e54 <_printf_i+0x23c>)
    4d2c:	9303      	str	r3, [sp, #12]
    4d2e:	6863      	ldr	r3, [r4, #4]
    4d30:	60a3      	str	r3, [r4, #8]
    4d32:	2b00      	cmp	r3, #0
    4d34:	db09      	blt.n	4d4a <_printf_i+0x132>
    4d36:	2204      	movs	r2, #4
    4d38:	6821      	ldr	r1, [r4, #0]
    4d3a:	4391      	bics	r1, r2
    4d3c:	6021      	str	r1, [r4, #0]
    4d3e:	2d00      	cmp	r5, #0
    4d40:	d105      	bne.n	4d4e <_printf_i+0x136>
    4d42:	9e04      	ldr	r6, [sp, #16]
    4d44:	2b00      	cmp	r3, #0
    4d46:	d011      	beq.n	4d6c <_printf_i+0x154>
    4d48:	e07b      	b.n	4e42 <_printf_i+0x22a>
    4d4a:	2d00      	cmp	r5, #0
    4d4c:	d079      	beq.n	4e42 <_printf_i+0x22a>
    4d4e:	9e04      	ldr	r6, [sp, #16]
    4d50:	0028      	movs	r0, r5
    4d52:	0039      	movs	r1, r7
    4d54:	f7fd fbf4 	bl	2540 <__aeabi_uidivmod>
    4d58:	9b03      	ldr	r3, [sp, #12]
    4d5a:	3e01      	subs	r6, #1
    4d5c:	5c5b      	ldrb	r3, [r3, r1]
    4d5e:	0028      	movs	r0, r5
    4d60:	7033      	strb	r3, [r6, #0]
    4d62:	0039      	movs	r1, r7
    4d64:	f7fd fb66 	bl	2434 <__aeabi_uidiv>
    4d68:	1e05      	subs	r5, r0, #0
    4d6a:	d1f1      	bne.n	4d50 <_printf_i+0x138>
    4d6c:	2f08      	cmp	r7, #8
    4d6e:	d109      	bne.n	4d84 <_printf_i+0x16c>
    4d70:	6823      	ldr	r3, [r4, #0]
    4d72:	07db      	lsls	r3, r3, #31
    4d74:	d506      	bpl.n	4d84 <_printf_i+0x16c>
    4d76:	6863      	ldr	r3, [r4, #4]
    4d78:	6922      	ldr	r2, [r4, #16]
    4d7a:	4293      	cmp	r3, r2
    4d7c:	dc02      	bgt.n	4d84 <_printf_i+0x16c>
    4d7e:	2330      	movs	r3, #48	; 0x30
    4d80:	3e01      	subs	r6, #1
    4d82:	7033      	strb	r3, [r6, #0]
    4d84:	9b04      	ldr	r3, [sp, #16]
    4d86:	1b9b      	subs	r3, r3, r6
    4d88:	6123      	str	r3, [r4, #16]
    4d8a:	e02b      	b.n	4de4 <_printf_i+0x1cc>
    4d8c:	6809      	ldr	r1, [r1, #0]
    4d8e:	681a      	ldr	r2, [r3, #0]
    4d90:	0608      	lsls	r0, r1, #24
    4d92:	d407      	bmi.n	4da4 <_printf_i+0x18c>
    4d94:	0649      	lsls	r1, r1, #25
    4d96:	d505      	bpl.n	4da4 <_printf_i+0x18c>
    4d98:	1d11      	adds	r1, r2, #4
    4d9a:	6019      	str	r1, [r3, #0]
    4d9c:	6813      	ldr	r3, [r2, #0]
    4d9e:	8aa2      	ldrh	r2, [r4, #20]
    4da0:	801a      	strh	r2, [r3, #0]
    4da2:	e004      	b.n	4dae <_printf_i+0x196>
    4da4:	1d11      	adds	r1, r2, #4
    4da6:	6019      	str	r1, [r3, #0]
    4da8:	6813      	ldr	r3, [r2, #0]
    4daa:	6962      	ldr	r2, [r4, #20]
    4dac:	601a      	str	r2, [r3, #0]
    4dae:	2300      	movs	r3, #0
    4db0:	9e04      	ldr	r6, [sp, #16]
    4db2:	6123      	str	r3, [r4, #16]
    4db4:	e016      	b.n	4de4 <_printf_i+0x1cc>
    4db6:	681a      	ldr	r2, [r3, #0]
    4db8:	1d11      	adds	r1, r2, #4
    4dba:	6019      	str	r1, [r3, #0]
    4dbc:	6816      	ldr	r6, [r2, #0]
    4dbe:	2100      	movs	r1, #0
    4dc0:	6862      	ldr	r2, [r4, #4]
    4dc2:	0030      	movs	r0, r6
    4dc4:	f000 f93c 	bl	5040 <memchr>
    4dc8:	2800      	cmp	r0, #0
    4dca:	d001      	beq.n	4dd0 <_printf_i+0x1b8>
    4dcc:	1b80      	subs	r0, r0, r6
    4dce:	6060      	str	r0, [r4, #4]
    4dd0:	6863      	ldr	r3, [r4, #4]
    4dd2:	e003      	b.n	4ddc <_printf_i+0x1c4>
    4dd4:	0026      	movs	r6, r4
    4dd6:	3642      	adds	r6, #66	; 0x42
    4dd8:	7032      	strb	r2, [r6, #0]
    4dda:	2301      	movs	r3, #1
    4ddc:	6123      	str	r3, [r4, #16]
    4dde:	2300      	movs	r3, #0
    4de0:	9a04      	ldr	r2, [sp, #16]
    4de2:	7013      	strb	r3, [r2, #0]
    4de4:	9b07      	ldr	r3, [sp, #28]
    4de6:	aa09      	add	r2, sp, #36	; 0x24
    4de8:	9300      	str	r3, [sp, #0]
    4dea:	0021      	movs	r1, r4
    4dec:	9b06      	ldr	r3, [sp, #24]
    4dee:	9805      	ldr	r0, [sp, #20]
    4df0:	f7ff fea4 	bl	4b3c <_printf_common>
    4df4:	1c43      	adds	r3, r0, #1
    4df6:	d102      	bne.n	4dfe <_printf_i+0x1e6>
    4df8:	2001      	movs	r0, #1
    4dfa:	4240      	negs	r0, r0
    4dfc:	e027      	b.n	4e4e <_printf_i+0x236>
    4dfe:	6923      	ldr	r3, [r4, #16]
    4e00:	0032      	movs	r2, r6
    4e02:	9906      	ldr	r1, [sp, #24]
    4e04:	9805      	ldr	r0, [sp, #20]
    4e06:	9d07      	ldr	r5, [sp, #28]
    4e08:	47a8      	blx	r5
    4e0a:	1c43      	adds	r3, r0, #1
    4e0c:	d0f4      	beq.n	4df8 <_printf_i+0x1e0>
    4e0e:	6823      	ldr	r3, [r4, #0]
    4e10:	2500      	movs	r5, #0
    4e12:	079b      	lsls	r3, r3, #30
    4e14:	d40f      	bmi.n	4e36 <_printf_i+0x21e>
    4e16:	9b09      	ldr	r3, [sp, #36]	; 0x24
    4e18:	68e0      	ldr	r0, [r4, #12]
    4e1a:	4298      	cmp	r0, r3
    4e1c:	da17      	bge.n	4e4e <_printf_i+0x236>
    4e1e:	0018      	movs	r0, r3
    4e20:	e015      	b.n	4e4e <_printf_i+0x236>
    4e22:	0022      	movs	r2, r4
    4e24:	2301      	movs	r3, #1
    4e26:	3219      	adds	r2, #25
    4e28:	9906      	ldr	r1, [sp, #24]
    4e2a:	9805      	ldr	r0, [sp, #20]
    4e2c:	9e07      	ldr	r6, [sp, #28]
    4e2e:	47b0      	blx	r6
    4e30:	1c43      	adds	r3, r0, #1
    4e32:	d0e1      	beq.n	4df8 <_printf_i+0x1e0>
    4e34:	3501      	adds	r5, #1
    4e36:	68e3      	ldr	r3, [r4, #12]
    4e38:	9a09      	ldr	r2, [sp, #36]	; 0x24
    4e3a:	1a9b      	subs	r3, r3, r2
    4e3c:	429d      	cmp	r5, r3
    4e3e:	dbf0      	blt.n	4e22 <_printf_i+0x20a>
    4e40:	e7e9      	b.n	4e16 <_printf_i+0x1fe>
    4e42:	0026      	movs	r6, r4
    4e44:	9b03      	ldr	r3, [sp, #12]
    4e46:	3642      	adds	r6, #66	; 0x42
    4e48:	781b      	ldrb	r3, [r3, #0]
    4e4a:	7033      	strb	r3, [r6, #0]
    4e4c:	e78e      	b.n	4d6c <_printf_i+0x154>
    4e4e:	b00b      	add	sp, #44	; 0x2c
    4e50:	bdf0      	pop	{r4, r5, r6, r7, pc}
    4e52:	46c0      	nop			; (mov r8, r8)
    4e54:	0000526d 	.word	0x0000526d
    4e58:	0000527e 	.word	0x0000527e

00004e5c <_putc_r>:
    4e5c:	b570      	push	{r4, r5, r6, lr}
    4e5e:	0006      	movs	r6, r0
    4e60:	000d      	movs	r5, r1
    4e62:	0014      	movs	r4, r2
    4e64:	2800      	cmp	r0, #0
    4e66:	d004      	beq.n	4e72 <_putc_r+0x16>
    4e68:	6983      	ldr	r3, [r0, #24]
    4e6a:	2b00      	cmp	r3, #0
    4e6c:	d101      	bne.n	4e72 <_putc_r+0x16>
    4e6e:	f7ff fb83 	bl	4578 <__sinit>
    4e72:	4b12      	ldr	r3, [pc, #72]	; (4ebc <_putc_r+0x60>)
    4e74:	429c      	cmp	r4, r3
    4e76:	d101      	bne.n	4e7c <_putc_r+0x20>
    4e78:	6874      	ldr	r4, [r6, #4]
    4e7a:	e008      	b.n	4e8e <_putc_r+0x32>
    4e7c:	4b10      	ldr	r3, [pc, #64]	; (4ec0 <_putc_r+0x64>)
    4e7e:	429c      	cmp	r4, r3
    4e80:	d101      	bne.n	4e86 <_putc_r+0x2a>
    4e82:	68b4      	ldr	r4, [r6, #8]
    4e84:	e003      	b.n	4e8e <_putc_r+0x32>
    4e86:	4b0f      	ldr	r3, [pc, #60]	; (4ec4 <_putc_r+0x68>)
    4e88:	429c      	cmp	r4, r3
    4e8a:	d100      	bne.n	4e8e <_putc_r+0x32>
    4e8c:	68f4      	ldr	r4, [r6, #12]
    4e8e:	68a3      	ldr	r3, [r4, #8]
    4e90:	3b01      	subs	r3, #1
    4e92:	60a3      	str	r3, [r4, #8]
    4e94:	2b00      	cmp	r3, #0
    4e96:	da05      	bge.n	4ea4 <_putc_r+0x48>
    4e98:	69a2      	ldr	r2, [r4, #24]
    4e9a:	4293      	cmp	r3, r2
    4e9c:	db08      	blt.n	4eb0 <_putc_r+0x54>
    4e9e:	b2eb      	uxtb	r3, r5
    4ea0:	2b0a      	cmp	r3, #10
    4ea2:	d005      	beq.n	4eb0 <_putc_r+0x54>
    4ea4:	6823      	ldr	r3, [r4, #0]
    4ea6:	b2e8      	uxtb	r0, r5
    4ea8:	1c5a      	adds	r2, r3, #1
    4eaa:	6022      	str	r2, [r4, #0]
    4eac:	701d      	strb	r5, [r3, #0]
    4eae:	e004      	b.n	4eba <_putc_r+0x5e>
    4eb0:	0022      	movs	r2, r4
    4eb2:	0029      	movs	r1, r5
    4eb4:	0030      	movs	r0, r6
    4eb6:	f7ff f99d 	bl	41f4 <__swbuf_r>
    4eba:	bd70      	pop	{r4, r5, r6, pc}
    4ebc:	000051fc 	.word	0x000051fc
    4ec0:	0000521c 	.word	0x0000521c
    4ec4:	0000523c 	.word	0x0000523c

00004ec8 <_sbrk_r>:
    4ec8:	2300      	movs	r3, #0
    4eca:	b570      	push	{r4, r5, r6, lr}
    4ecc:	4c06      	ldr	r4, [pc, #24]	; (4ee8 <_sbrk_r+0x20>)
    4ece:	0005      	movs	r5, r0
    4ed0:	0008      	movs	r0, r1
    4ed2:	6023      	str	r3, [r4, #0]
    4ed4:	f7fd f950 	bl	2178 <_sbrk>
    4ed8:	1c43      	adds	r3, r0, #1
    4eda:	d103      	bne.n	4ee4 <_sbrk_r+0x1c>
    4edc:	6823      	ldr	r3, [r4, #0]
    4ede:	2b00      	cmp	r3, #0
    4ee0:	d000      	beq.n	4ee4 <_sbrk_r+0x1c>
    4ee2:	602b      	str	r3, [r5, #0]
    4ee4:	bd70      	pop	{r4, r5, r6, pc}
    4ee6:	46c0      	nop			; (mov r8, r8)
    4ee8:	20000218 	.word	0x20000218

00004eec <__sread>:
    4eec:	b570      	push	{r4, r5, r6, lr}
    4eee:	000c      	movs	r4, r1
    4ef0:	250e      	movs	r5, #14
    4ef2:	5f49      	ldrsh	r1, [r1, r5]
    4ef4:	f000 f8b0 	bl	5058 <_read_r>
    4ef8:	2800      	cmp	r0, #0
    4efa:	db03      	blt.n	4f04 <__sread+0x18>
    4efc:	6d63      	ldr	r3, [r4, #84]	; 0x54
    4efe:	181b      	adds	r3, r3, r0
    4f00:	6563      	str	r3, [r4, #84]	; 0x54
    4f02:	e003      	b.n	4f0c <__sread+0x20>
    4f04:	89a2      	ldrh	r2, [r4, #12]
    4f06:	4b02      	ldr	r3, [pc, #8]	; (4f10 <__sread+0x24>)
    4f08:	4013      	ands	r3, r2
    4f0a:	81a3      	strh	r3, [r4, #12]
    4f0c:	bd70      	pop	{r4, r5, r6, pc}
    4f0e:	46c0      	nop			; (mov r8, r8)
    4f10:	ffffefff 	.word	0xffffefff

00004f14 <__swrite>:
    4f14:	b5f8      	push	{r3, r4, r5, r6, r7, lr}
    4f16:	001f      	movs	r7, r3
    4f18:	898b      	ldrh	r3, [r1, #12]
    4f1a:	0005      	movs	r5, r0
    4f1c:	000c      	movs	r4, r1
    4f1e:	0016      	movs	r6, r2
    4f20:	05db      	lsls	r3, r3, #23
    4f22:	d505      	bpl.n	4f30 <__swrite+0x1c>
    4f24:	230e      	movs	r3, #14
    4f26:	5ec9      	ldrsh	r1, [r1, r3]
    4f28:	2200      	movs	r2, #0
    4f2a:	2302      	movs	r3, #2
    4f2c:	f000 f874 	bl	5018 <_lseek_r>
    4f30:	89a2      	ldrh	r2, [r4, #12]
    4f32:	4b05      	ldr	r3, [pc, #20]	; (4f48 <__swrite+0x34>)
    4f34:	0028      	movs	r0, r5
    4f36:	4013      	ands	r3, r2
    4f38:	81a3      	strh	r3, [r4, #12]
    4f3a:	0032      	movs	r2, r6
    4f3c:	230e      	movs	r3, #14
    4f3e:	5ee1      	ldrsh	r1, [r4, r3]
    4f40:	003b      	movs	r3, r7
    4f42:	f000 f81f 	bl	4f84 <_write_r>
    4f46:	bdf8      	pop	{r3, r4, r5, r6, r7, pc}
    4f48:	ffffefff 	.word	0xffffefff

00004f4c <__sseek>:
    4f4c:	b570      	push	{r4, r5, r6, lr}
    4f4e:	000c      	movs	r4, r1
    4f50:	250e      	movs	r5, #14
    4f52:	5f49      	ldrsh	r1, [r1, r5]
    4f54:	f000 f860 	bl	5018 <_lseek_r>
    4f58:	89a3      	ldrh	r3, [r4, #12]
    4f5a:	1c42      	adds	r2, r0, #1
    4f5c:	d103      	bne.n	4f66 <__sseek+0x1a>
    4f5e:	4a05      	ldr	r2, [pc, #20]	; (4f74 <__sseek+0x28>)
    4f60:	4013      	ands	r3, r2
    4f62:	81a3      	strh	r3, [r4, #12]
    4f64:	e004      	b.n	4f70 <__sseek+0x24>
    4f66:	2280      	movs	r2, #128	; 0x80
    4f68:	0152      	lsls	r2, r2, #5
    4f6a:	4313      	orrs	r3, r2
    4f6c:	81a3      	strh	r3, [r4, #12]
    4f6e:	6560      	str	r0, [r4, #84]	; 0x54
    4f70:	bd70      	pop	{r4, r5, r6, pc}
    4f72:	46c0      	nop			; (mov r8, r8)
    4f74:	ffffefff 	.word	0xffffefff

00004f78 <__sclose>:
    4f78:	b510      	push	{r4, lr}
    4f7a:	230e      	movs	r3, #14
    4f7c:	5ec9      	ldrsh	r1, [r1, r3]
    4f7e:	f000 f815 	bl	4fac <_close_r>
    4f82:	bd10      	pop	{r4, pc}

00004f84 <_write_r>:
    4f84:	b570      	push	{r4, r5, r6, lr}
    4f86:	0005      	movs	r5, r0
    4f88:	0008      	movs	r0, r1
    4f8a:	0011      	movs	r1, r2
    4f8c:	2200      	movs	r2, #0
    4f8e:	4c06      	ldr	r4, [pc, #24]	; (4fa8 <_write_r+0x24>)
    4f90:	6022      	str	r2, [r4, #0]
    4f92:	001a      	movs	r2, r3
    4f94:	f7fb ff3e 	bl	e14 <_write>
    4f98:	1c43      	adds	r3, r0, #1
    4f9a:	d103      	bne.n	4fa4 <_write_r+0x20>
    4f9c:	6823      	ldr	r3, [r4, #0]
    4f9e:	2b00      	cmp	r3, #0
    4fa0:	d000      	beq.n	4fa4 <_write_r+0x20>
    4fa2:	602b      	str	r3, [r5, #0]
    4fa4:	bd70      	pop	{r4, r5, r6, pc}
    4fa6:	46c0      	nop			; (mov r8, r8)
    4fa8:	20000218 	.word	0x20000218

00004fac <_close_r>:
    4fac:	2300      	movs	r3, #0
    4fae:	b570      	push	{r4, r5, r6, lr}
    4fb0:	4c06      	ldr	r4, [pc, #24]	; (4fcc <_close_r+0x20>)
    4fb2:	0005      	movs	r5, r0
    4fb4:	0008      	movs	r0, r1
    4fb6:	6023      	str	r3, [r4, #0]
    4fb8:	f7fd f8f0 	bl	219c <_close>
    4fbc:	1c43      	adds	r3, r0, #1
    4fbe:	d103      	bne.n	4fc8 <_close_r+0x1c>
    4fc0:	6823      	ldr	r3, [r4, #0]
    4fc2:	2b00      	cmp	r3, #0
    4fc4:	d000      	beq.n	4fc8 <_close_r+0x1c>
    4fc6:	602b      	str	r3, [r5, #0]
    4fc8:	bd70      	pop	{r4, r5, r6, pc}
    4fca:	46c0      	nop			; (mov r8, r8)
    4fcc:	20000218 	.word	0x20000218

00004fd0 <_fstat_r>:
    4fd0:	2300      	movs	r3, #0
    4fd2:	b570      	push	{r4, r5, r6, lr}
    4fd4:	4c06      	ldr	r4, [pc, #24]	; (4ff0 <_fstat_r+0x20>)
    4fd6:	0005      	movs	r5, r0
    4fd8:	0008      	movs	r0, r1
    4fda:	0011      	movs	r1, r2
    4fdc:	6023      	str	r3, [r4, #0]
    4fde:	f7fd f8e1 	bl	21a4 <_fstat>
    4fe2:	1c43      	adds	r3, r0, #1
    4fe4:	d103      	bne.n	4fee <_fstat_r+0x1e>
    4fe6:	6823      	ldr	r3, [r4, #0]
    4fe8:	2b00      	cmp	r3, #0
    4fea:	d000      	beq.n	4fee <_fstat_r+0x1e>
    4fec:	602b      	str	r3, [r5, #0]
    4fee:	bd70      	pop	{r4, r5, r6, pc}
    4ff0:	20000218 	.word	0x20000218

00004ff4 <_isatty_r>:
    4ff4:	2300      	movs	r3, #0
    4ff6:	b570      	push	{r4, r5, r6, lr}
    4ff8:	4c06      	ldr	r4, [pc, #24]	; (5014 <_isatty_r+0x20>)
    4ffa:	0005      	movs	r5, r0
    4ffc:	0008      	movs	r0, r1
    4ffe:	6023      	str	r3, [r4, #0]
    5000:	f7fd f8d6 	bl	21b0 <_isatty>
    5004:	1c43      	adds	r3, r0, #1
    5006:	d103      	bne.n	5010 <_isatty_r+0x1c>
    5008:	6823      	ldr	r3, [r4, #0]
    500a:	2b00      	cmp	r3, #0
    500c:	d000      	beq.n	5010 <_isatty_r+0x1c>
    500e:	602b      	str	r3, [r5, #0]
    5010:	bd70      	pop	{r4, r5, r6, pc}
    5012:	46c0      	nop			; (mov r8, r8)
    5014:	20000218 	.word	0x20000218

00005018 <_lseek_r>:
    5018:	b570      	push	{r4, r5, r6, lr}
    501a:	0005      	movs	r5, r0
    501c:	0008      	movs	r0, r1
    501e:	0011      	movs	r1, r2
    5020:	2200      	movs	r2, #0
    5022:	4c06      	ldr	r4, [pc, #24]	; (503c <_lseek_r+0x24>)
    5024:	6022      	str	r2, [r4, #0]
    5026:	001a      	movs	r2, r3
    5028:	f7fd f8c4 	bl	21b4 <_lseek>
    502c:	1c43      	adds	r3, r0, #1
    502e:	d103      	bne.n	5038 <_lseek_r+0x20>
    5030:	6823      	ldr	r3, [r4, #0]
    5032:	2b00      	cmp	r3, #0
    5034:	d000      	beq.n	5038 <_lseek_r+0x20>
    5036:	602b      	str	r3, [r5, #0]
    5038:	bd70      	pop	{r4, r5, r6, pc}
    503a:	46c0      	nop			; (mov r8, r8)
    503c:	20000218 	.word	0x20000218

00005040 <memchr>:
    5040:	b2c9      	uxtb	r1, r1
    5042:	1882      	adds	r2, r0, r2
    5044:	4290      	cmp	r0, r2
    5046:	d004      	beq.n	5052 <memchr+0x12>
    5048:	7803      	ldrb	r3, [r0, #0]
    504a:	428b      	cmp	r3, r1
    504c:	d002      	beq.n	5054 <memchr+0x14>
    504e:	3001      	adds	r0, #1
    5050:	e7f8      	b.n	5044 <memchr+0x4>
    5052:	2000      	movs	r0, #0
    5054:	4770      	bx	lr
	...

00005058 <_read_r>:
    5058:	b570      	push	{r4, r5, r6, lr}
    505a:	0005      	movs	r5, r0
    505c:	0008      	movs	r0, r1
    505e:	0011      	movs	r1, r2
    5060:	2200      	movs	r2, #0
    5062:	4c06      	ldr	r4, [pc, #24]	; (507c <_read_r+0x24>)
    5064:	6022      	str	r2, [r4, #0]
    5066:	001a      	movs	r2, r3
    5068:	f7fb feb4 	bl	dd4 <_read>
    506c:	1c43      	adds	r3, r0, #1
    506e:	d103      	bne.n	5078 <_read_r+0x20>
    5070:	6823      	ldr	r3, [r4, #0]
    5072:	2b00      	cmp	r3, #0
    5074:	d000      	beq.n	5078 <_read_r+0x20>
    5076:	602b      	str	r3, [r5, #0]
    5078:	bd70      	pop	{r4, r5, r6, pc}
    507a:	46c0      	nop			; (mov r8, r8)
    507c:	20000218 	.word	0x20000218

00005080 <_tcc_intflag>:
    5080:	00000001 00000002 00000004 00000008     ................
    5090:	00001000 00002000 00004000 00008000     ..... ...@......
    50a0:	00010000 00020000 00040000 00080000     ................
    50b0:	42002c00 42003000 42003400 001c1c1b     .,.B.0.B.4.B....
    50c0:	10000800 00002000 42000800 42000c00     ..... .....B...B
    50d0:	42001000 42001400 42001800 42001c00     ...B...B...B...B
    50e0:	0c0b0a09 00000e0d 00001ace 00001aca     ................
    50f0:	00001aca 00001b28 00001b28 00001ae2     ....(...(.......
    5100:	00001ad4 00001ae8 00001b16 00001bb4     ................
    5110:	00001b94 00001b94 00001c20 00001ba6     ........ .......
    5120:	00001bc2 00001b98 00001bd0 00001c10     ................
    5130:	00030012 200000e0 00000000 74206948     ....... ....Hi t
    5140:	20736968 4d207369 45545341 00000052     his is MASTER...
    5150:	6f666542 77206572 65746972 00000000     Before write....
    5160:	00206425 6f666562 63206572 726f6c6f     %d .before color
    5170:	00000000 00002dec 00002cba 00002dc0     .....-...,...-..
    5180:	00002cb0 00002dc0 00002dca 00002dc0     .,...-...-...-..
    5190:	00002cb0 00002cba 00002cba 00002dca     .,...,...,...-..
    51a0:	00002cb0 00002ca6 00002ca6 00002ca6     .,...,...,...,..
    51b0:	0000301c 00003418 000032d8 000032d8     .0...4...2...2..
    51c0:	000032d6 000033f0 000033f0 000033e2     .2...3...3...3..
    51d0:	000032d6 000033f0 000033e2 000033f0     .2...3...3...3..
    51e0:	000032d6 000033f8 000033f8 000033f8     .2...3...3...3..
    51f0:	000035f8 00000043                       .5..C...

000051f8 <_global_impure_ptr>:
    51f8:	20000020                                 .. 

000051fc <__sf_fake_stdin>:
	...

0000521c <__sf_fake_stdout>:
	...

0000523c <__sf_fake_stderr>:
	...
    525c:	2b302d23 6c680020 6665004c 47464567     #-0+ .hlL.efgEFG
    526c:	32313000 36353433 41393837 45444342     .0123456789ABCDE
    527c:	31300046 35343332 39383736 64636261     F.0123456789abcd
    528c:	00006665                                ef..

00005290 <_init>:
    5290:	b5f8      	push	{r3, r4, r5, r6, r7, lr}
    5292:	46c0      	nop			; (mov r8, r8)
    5294:	bcf8      	pop	{r3, r4, r5, r6, r7}
    5296:	bc08      	pop	{r3}
    5298:	469e      	mov	lr, r3
    529a:	4770      	bx	lr

0000529c <__init_array_start>:
    529c:	000000dd 	.word	0x000000dd

000052a0 <_fini>:
    52a0:	b5f8      	push	{r3, r4, r5, r6, r7, lr}
    52a2:	46c0      	nop			; (mov r8, r8)
    52a4:	bcf8      	pop	{r3, r4, r5, r6, r7}
    52a6:	bc08      	pop	{r3}
    52a8:	469e      	mov	lr, r3
    52aa:	4770      	bx	lr

000052ac <__fini_array_start>:
    52ac:	000000b5 	.word	0x000000b5
